(dp0
S'42'
p1
(lp2
ccopy_reg
_reconstructor
p3
(cgeometry_msgs.msg._PoseStamped
PoseStamped
p4
c__builtin__
object
p5
Ntp6
Rp7
(lp8
g3
(cstd_msgs.msg._Header
Header
p9
g5
Ntp10
Rp11
(lp12
I1274385
ag3
(cgenpy.rostime
Time
p13
g5
Ntp14
Rp15
(lp16
I1405969904
aI196220781
abaS'/two_remote_center_link'
p17
abag3
(cgeometry_msgs.msg._Pose
Pose
p18
g5
Ntp19
Rp20
(lp21
g3
(cgeometry_msgs.msg._Point
Point
p22
g5
Ntp23
Rp24
(lp25
F0.022994384965668854
aF0.021465892455645695
aF-0.10883807642939294
abag3
(cgeometry_msgs.msg._Quaternion
Quaternion
p26
g5
Ntp27
Rp28
(lp29
F0.992356209361464
aF-0.07448349255267389
aF0.055496867475018925
aF-0.08124937402443283
abababag3
(csensor_msgs.msg._JointState
JointState
p30
g5
Ntp31
Rp32
(lp33
g3
(g9
g5
Ntp34
Rp35
(lp36
I1267853
ag3
(g13
g5
Ntp37
Rp38
(lp39
I1405969904
aI165353448
abaS''
p40
aba(lp41
S'two_outer_yaw_joint'
p42
aS'two_outer_pitch_joint_1'
p43
aS'two_outer_insertion_joint'
p44
aS'two_outer_roll_joint'
p45
aS'two_outer_wrist_pitch_joint'
p46
aS'two_outer_wrist_yaw_joint'
p47
aS'two_outer_wrist_open_angle_joint_1'
p48
aS'one_outer_yaw_joint'
p49
aS'one_outer_pitch_joint_1'
p50
aS'one_outer_insertion_joint'
p51
aS'one_outer_roll_joint'
p52
aS'one_outer_wrist_pitch_joint'
p53
aS'one_outer_wrist_yaw_joint'
p54
aS'one_outer_wrist_open_angle_joint_1'
p55
aS'one_outer_pitch_joint_2'
p56
aS'two_outer_pitch_joint_2'
p57
aS'one_outer_pitch_joint_3'
p58
aS'two_outer_pitch_joint_3'
p59
aS'one_outer_pitch_joint_4'
p60
aS'two_outer_pitch_joint_4'
p61
aS'one_outer_pitch_joint_5'
p62
aS'two_outer_pitch_joint_5'
p63
aS'one_outer_wrist_open_angle_joint_2'
p64
aS'two_outer_wrist_open_angle_joint_2'
p65
aa(F0.22463276590317116
F-0.19278542711230667
F0.1096733995420661
F-4.533120292597605
F0.09112325662046523
F0.05534749736386031
F0.17448382639171245
F-0.21938205574426642
F-0.20654588294408116
F0.15466348946667086
F-4.532440609514708
F-0.11715061276442913
F0.032650184010643915
F-0.19357393016185667
F-0.20654588294408116
F-0.19278542711230667
F0.20654588294408116
F0.19278542711230667
F0.20654588294408116
F0.19278542711230667
F-0.20654588294408116
F-0.19278542711230667
F0.19357393016185667
F-0.17448382639171245
tp66
a(ta(tabasS'43'
p67
(lp68
g3
(g4
g5
Ntp69
Rp70
(lp71
g3
(g9
g5
Ntp72
Rp73
(lp74
I1281873
ag3
(g13
g5
Ntp75
Rp76
(lp77
I1405969919
aI618622204
abaS'/two_remote_center_link'
p78
abag3
(g18
g5
Ntp79
Rp80
(lp81
g3
(g22
g5
Ntp82
Rp83
(lp84
F0.02299319745906526
aF0.021463453770309424
aF-0.10883867740538053
abag3
(g26
g5
Ntp85
Rp86
(lp87
F0.9923663706843305
aF-0.0744906046285354
aF0.05548390959198591
aF-0.08112750417258982
abababag3
(g30
g5
Ntp88
Rp89
(lp90
g3
(g9
g5
Ntp91
Rp92
(lp93
I1275350
ag3
(g13
g5
Ntp94
Rp95
(lp96
I1405969919
aI606332669
abag40
aba(lp97
S'two_outer_yaw_joint'
p98
aS'two_outer_pitch_joint_1'
p99
aS'two_outer_insertion_joint'
p100
aS'two_outer_roll_joint'
p101
aS'two_outer_wrist_pitch_joint'
p102
aS'two_outer_wrist_yaw_joint'
p103
aS'two_outer_wrist_open_angle_joint_1'
p104
aS'one_outer_yaw_joint'
p105
aS'one_outer_pitch_joint_1'
p106
aS'one_outer_insertion_joint'
p107
aS'one_outer_roll_joint'
p108
aS'one_outer_wrist_pitch_joint'
p109
aS'one_outer_wrist_yaw_joint'
p110
aS'one_outer_wrist_open_angle_joint_1'
p111
aS'one_outer_pitch_joint_2'
p112
aS'two_outer_pitch_joint_2'
p113
aS'one_outer_pitch_joint_3'
p114
aS'two_outer_pitch_joint_3'
p115
aS'one_outer_pitch_joint_4'
p116
aS'two_outer_pitch_joint_4'
p117
aS'one_outer_pitch_joint_5'
p118
aS'two_outer_pitch_joint_5'
p119
aS'one_outer_wrist_open_angle_joint_2'
p120
aS'two_outer_wrist_open_angle_joint_2'
p121
aa(F0.22462504317029694
F-0.19278542711230667
F0.1096733995420661
F-4.533120292597605
F0.09112325662046523
F0.055592533584282004
F0.17432048232557817
F-0.2930800955629909
F-0.2096735897581421
F0.16044364657667085
F-4.532440609514708
F-0.10867914977897183
F0.01953468973078311
F-0.19357393016185662
F-0.2096735897581421
F-0.19278542711230667
F0.2096735897581421
F0.19278542711230667
F0.2096735897581421
F0.19278542711230667
F-0.2096735897581421
F-0.19278542711230667
F0.19357393016185662
F-0.17432048232557817
tp122
a(ta(tabasS'24'
p123
(lp124
g3
(g4
g5
Ntp125
Rp126
(lp127
g3
(g9
g5
Ntp128
Rp129
(lp130
I838859
ag3
(g13
g5
Ntp131
Rp132
(lp133
I1405969007
aI217070304
abaS'/two_remote_center_link'
p134
abag3
(g18
g5
Ntp135
Rp136
(lp137
g3
(g22
g5
Ntp138
Rp139
(lp140
F0.02299507224621535
aF0.021470591868893305
aF-0.10883978953720576
abag3
(g26
g5
Ntp141
Rp142
(lp143
F0.9923488433535994
aF-0.07447702554295235
aF0.05550190004587321
aF-0.08134177802547668
abababag3
(g30
g5
Ntp144
Rp145
(lp146
g3
(g9
g5
Ntp147
Rp148
(lp149
I832337
ag3
(g13
g5
Ntp150
Rp151
(lp152
I1405969007
aI206781757
abag40
aba(lp153
S'two_outer_yaw_joint'
p154
aS'two_outer_pitch_joint_1'
p155
aS'two_outer_insertion_joint'
p156
aS'two_outer_roll_joint'
p157
aS'two_outer_wrist_pitch_joint'
p158
aS'two_outer_wrist_yaw_joint'
p159
aS'two_outer_wrist_open_angle_joint_1'
p160
aS'one_outer_yaw_joint'
p161
aS'one_outer_pitch_joint_1'
p162
aS'one_outer_insertion_joint'
p163
aS'one_outer_roll_joint'
p164
aS'one_outer_wrist_pitch_joint'
p165
aS'one_outer_wrist_yaw_joint'
p166
aS'one_outer_wrist_open_angle_joint_1'
p167
aS'one_outer_pitch_joint_2'
p168
aS'two_outer_pitch_joint_2'
p169
aS'one_outer_pitch_joint_3'
p170
aS'two_outer_pitch_joint_3'
p171
aS'one_outer_pitch_joint_4'
p172
aS'two_outer_pitch_joint_4'
p173
aS'one_outer_pitch_joint_5'
p174
aS'two_outer_pitch_joint_5'
p175
aS'one_outer_wrist_open_angle_joint_2'
p176
aS'two_outer_wrist_open_angle_joint_2'
p177
aa(F0.22463276590317116
F-0.19280859531092934
F0.10967599212206611
F-4.533120292597605
F0.09112325662046523
F0.055184139883579175
F0.1744838263917124
F-0.0958028842909258
F-0.016620713368277806
F0.14462501970667085
F-4.532859989401678
F-0.12288934575457763
F-0.17593345454111436
F-0.2035379181960477
F-0.016620713368277806
F-0.19280859531092934
F0.016620713368277806
F0.19280859531092934
F0.016620713368277806
F0.19280859531092934
F-0.016620713368277806
F-0.19280859531092934
F0.2035379181960477
F-0.1744838263917124
tp178
a(ta(tabasS'25'
p179
(lp180
g3
(g4
g5
Ntp181
Rp182
(lp183
g3
(g9
g5
Ntp184
Rp185
(lp186
I851095
ag3
(g13
g5
Ntp187
Rp188
(lp189
I1405969032
aI435069200
abaS'/two_remote_center_link'
p190
abag3
(g18
g5
Ntp191
Rp192
(lp193
g3
(g22
g5
Ntp194
Rp195
(lp196
F0.02299579715797411
aF0.021469779007607142
aF-0.10883975330274503
abag3
(g26
g5
Ntp197
Rp198
(lp199
F0.9923519501641996
aF-0.07447897820900155
aF0.05550269023970962
aF-0.08130153864723519
abababag3
(g30
g5
Ntp200
Rp201
(lp202
g3
(g9
g5
Ntp203
Rp204
(lp205
I844574
ag3
(g13
g5
Ntp206
Rp207
(lp208
I1405969032
aI426850857
abag40
aba(lp209
S'two_outer_yaw_joint'
p210
aS'two_outer_pitch_joint_1'
p211
aS'two_outer_insertion_joint'
p212
aS'two_outer_roll_joint'
p213
aS'two_outer_wrist_pitch_joint'
p214
aS'two_outer_wrist_yaw_joint'
p215
aS'two_outer_wrist_open_angle_joint_1'
p216
aS'one_outer_yaw_joint'
p217
aS'one_outer_pitch_joint_1'
p218
aS'one_outer_insertion_joint'
p219
aS'one_outer_roll_joint'
p220
aS'one_outer_wrist_pitch_joint'
p221
aS'one_outer_wrist_yaw_joint'
p222
aS'one_outer_wrist_open_angle_joint_1'
p223
aS'one_outer_pitch_joint_2'
p224
aS'two_outer_pitch_joint_2'
p225
aS'one_outer_pitch_joint_3'
p226
aS'two_outer_pitch_joint_3'
p227
aS'one_outer_pitch_joint_4'
p228
aS'two_outer_pitch_joint_4'
p229
aS'one_outer_pitch_joint_5'
p230
aS'two_outer_pitch_joint_5'
p231
aS'one_outer_wrist_open_angle_joint_2'
p232
aS'two_outer_wrist_open_angle_joint_2'
p233
aa(F0.22464048863604538
F-0.19280859531092934
F0.10967599212206611
F-4.533120292597605
F0.09112325662046523
F0.05526581862371974
F0.17432048232557812
F-0.1637011517211077
F-0.019068819689406935
F0.15086665605667088
F-4.532230919571224
F-0.07971221182869846
F-0.20452553415779795
F-0.19422730642639374
F-0.019068819689406935
F-0.19280859531092934
F0.019068819689406935
F0.19280859531092934
F0.019068819689406935
F0.19280859531092934
F-0.019068819689406935
F-0.19280859531092934
F0.19422730642639374
F-0.17432048232557812
tp234
a(ta(tabasS'26'
p235
(lp236
g3
(g4
g5
Ntp237
Rp238
(lp239
g3
(g9
g5
Ntp240
Rp241
(lp242
I861723
ag3
(g13
g5
Ntp243
Rp244
(lp245
I1405969054
aI355426230
abaS'/two_remote_center_link'
p246
abag3
(g18
g5
Ntp247
Rp248
(lp249
g3
(g22
g5
Ntp250
Rp251
(lp252
F0.02299434732694861
aF0.02147140471975638
aF-0.10883982570023241
abag3
(g26
g5
Ntp253
Rp254
(lp255
F0.9923457348965993
aF-0.07447507306455434
aF0.05550110978429482
aF-0.08138201728434412
abababag3
(g30
g5
Ntp256
Rp257
(lp258
g3
(g9
g5
Ntp259
Rp260
(lp261
I855204
ag3
(g13
g5
Ntp262
Rp263
(lp264
I1405969054
aI351323358
abag40
aba(lp265
S'two_outer_yaw_joint'
p266
aS'two_outer_pitch_joint_1'
p267
aS'two_outer_insertion_joint'
p268
aS'two_outer_roll_joint'
p269
aS'two_outer_wrist_pitch_joint'
p270
aS'two_outer_wrist_yaw_joint'
p271
aS'two_outer_wrist_open_angle_joint_1'
p272
aS'one_outer_yaw_joint'
p273
aS'one_outer_pitch_joint_1'
p274
aS'one_outer_insertion_joint'
p275
aS'one_outer_roll_joint'
p276
aS'one_outer_wrist_pitch_joint'
p277
aS'one_outer_wrist_yaw_joint'
p278
aS'one_outer_wrist_open_angle_joint_1'
p279
aS'one_outer_pitch_joint_2'
p280
aS'two_outer_pitch_joint_2'
p281
aS'one_outer_pitch_joint_3'
p282
aS'two_outer_pitch_joint_3'
p283
aS'one_outer_pitch_joint_4'
p284
aS'two_outer_pitch_joint_4'
p285
aS'one_outer_pitch_joint_5'
p286
aS'two_outer_pitch_joint_5'
p287
aS'one_outer_wrist_open_angle_joint_2'
p288
aS'two_outer_wrist_open_angle_joint_2'
p289
aa(F0.22462504317029694
F-0.19280859531092934
F0.10967599212206611
F-4.533120292597605
F0.09112325662046523
F0.055102461143438614
F0.17464717045784667
F-0.24114471698383108
F-0.03676932343712952
F0.15302757148667087
F-4.532230919571224
F-0.09364913480477338
F-0.143908627676004
F-0.202557853799242
F-0.03676932343712952
F-0.19280859531092934
F0.03676932343712952
F0.19280859531092934
F0.03676932343712952
F0.19280859531092934
F-0.03676932343712952
F-0.19280859531092934
F0.202557853799242
F-0.17464717045784667
tp290
a(ta(tabasS'27'
p291
(lp292
g3
(g4
g5
Ntp293
Rp294
(lp295
g3
(g9
g5
Ntp296
Rp297
(lp298
I871742
ag3
(g13
g5
Ntp299
Rp300
(lp301
I1405969075
aI1025794
abaS'/two_remote_center_link'
p302
abag3
(g18
g5
Ntp303
Rp304
(lp305
g3
(g22
g5
Ntp306
Rp307
(lp308
F0.02299423170490896
aF0.021470591868893305
aF-0.10883996711876051
abag3
(g26
g5
Ntp309
Rp310
(lp311
F0.9923490576593753
aF-0.07447733963280875
aF0.05549806822294189
aF-0.08134149044178353
abababag3
(g30
g5
Ntp312
Rp313
(lp314
g3
(g9
g5
Ntp315
Rp316
(lp317
I865207
ag3
(g13
g5
Ntp318
Rp319
(lp320
I1405969074
aI964053833
abag40
aba(lp321
S'two_outer_yaw_joint'
p322
aS'two_outer_pitch_joint_1'
p323
aS'two_outer_insertion_joint'
p324
aS'two_outer_roll_joint'
p325
aS'two_outer_wrist_pitch_joint'
p326
aS'two_outer_wrist_yaw_joint'
p327
aS'two_outer_wrist_open_angle_joint_1'
p328
aS'one_outer_yaw_joint'
p329
aS'one_outer_pitch_joint_1'
p330
aS'one_outer_insertion_joint'
p331
aS'one_outer_roll_joint'
p332
aS'one_outer_wrist_pitch_joint'
p333
aS'one_outer_wrist_yaw_joint'
p334
aS'one_outer_wrist_open_angle_joint_1'
p335
aS'one_outer_pitch_joint_2'
p336
aS'two_outer_pitch_joint_2'
p337
aS'one_outer_pitch_joint_3'
p338
aS'two_outer_pitch_joint_3'
p339
aS'one_outer_pitch_joint_4'
p340
aS'two_outer_pitch_joint_4'
p341
aS'one_outer_pitch_joint_5'
p342
aS'two_outer_pitch_joint_5'
p343
aS'one_outer_wrist_open_angle_joint_2'
p344
aS'two_outer_wrist_open_angle_joint_2'
p345
aa(F0.22462504317029694
F-0.19280859531092934
F0.10967599212206611
F-4.533120292597605
F0.09112325662046523
F0.055184139883579175
F0.1744838263917124
F-0.30558320008636036
F-0.04370433755818315
F0.16005605586667088
F-4.532230919571224
F-0.0984314122965638
F-0.11428019790235211
F-0.2033745741299134
F-0.04370433755818315
F-0.19280859531092934
F0.04370433755818315
F0.19280859531092934
F0.04370433755818315
F0.19280859531092934
F-0.04370433755818315
F-0.19280859531092934
F0.2033745741299134
F-0.1744838263917124
tp346
a(ta(tabasS'20'
p347
(lp348
g3
(g4
g5
Ntp349
Rp350
(lp351
g3
(g9
g5
Ntp352
Rp353
(lp354
I767927
ag3
(g13
g5
Ntp355
Rp356
(lp357
I1405968861
aI21363462
abaS'/two_remote_center_link'
p358
abag3
(g18
g5
Ntp359
Rp360
(lp361
g3
(g22
g5
Ntp362
Rp363
(lp364
F0.023001690573551007
aF0.02146582952328245
aF-0.10883962564221805
abag3
(g26
g5
Ntp365
Rp366
(lp367
F0.9923498101484326
aF-0.07450245991452749
aF0.055636735030879396
aF-0.0812144782668575
abababag3
(g30
g5
Ntp368
Rp369
(lp370
g3
(g9
g5
Ntp371
Rp372
(lp373
I761401
ag3
(g13
g5
Ntp374
Rp375
(lp376
I1405968861
aI2881026
abag40
aba(lp377
S'two_outer_yaw_joint'
p378
aS'two_outer_pitch_joint_1'
p379
aS'two_outer_insertion_joint'
p380
aS'two_outer_roll_joint'
p381
aS'two_outer_wrist_pitch_joint'
p382
aS'two_outer_wrist_yaw_joint'
p383
aS'two_outer_wrist_open_angle_joint_1'
p384
aS'one_outer_yaw_joint'
p385
aS'one_outer_pitch_joint_1'
p386
aS'one_outer_insertion_joint'
p387
aS'one_outer_roll_joint'
p388
aS'one_outer_wrist_pitch_joint'
p389
aS'one_outer_wrist_yaw_joint'
p390
aS'one_outer_wrist_open_angle_joint_1'
p391
aS'one_outer_pitch_joint_2'
p392
aS'two_outer_pitch_joint_2'
p393
aS'one_outer_pitch_joint_3'
p394
aS'two_outer_pitch_joint_3'
p395
aS'one_outer_pitch_joint_4'
p396
aS'two_outer_pitch_joint_4'
p397
aS'one_outer_pitch_joint_5'
p398
aS'two_outer_pitch_joint_5'
p399
aS'one_outer_wrist_open_angle_joint_2'
p400
aS'two_outer_wrist_open_angle_joint_2'
p401
aa(F0.2246482113689196
F-0.1927931498451809
F0.10967599212206611
F-4.533120292597605
F0.09084998362093434
F0.05540697569097203
F0.1744838263917124
F-0.38698080458068673
F0.01344388571107824
F0.16707676250667086
F-4.5311824698538015
F-0.17289830466872885
F-0.08214499943699927
F-0.20206782160083922
F0.01344388571107824
F-0.1927931498451809
F-0.01344388571107824
F0.1927931498451809
F-0.01344388571107824
F0.1927931498451809
F0.01344388571107824
F-0.1927931498451809
F0.20206782160083922
F-0.1744838263917124
tp402
a(ta(tabasS'21'
p403
(lp404
g3
(g4
g5
Ntp405
Rp406
(lp407
g3
(g9
g5
Ntp408
Rp409
(lp410
I786253
ag3
(g13
g5
Ntp411
Rp412
(lp413
I1405968898
aI752491604
abaS'/two_remote_center_link'
p414
abag3
(g18
g5
Ntp415
Rp416
(lp417
g3
(g22
g5
Ntp418
Rp419
(lp420
F0.02300180623019194
aF0.02146664240232141
aF-0.10883948441406517
abag3
(g26
g5
Ntp421
Rp422
(lp423
F0.9923464925727531
aF-0.07450018768318707
aF0.05563977761801318
aF-0.0812550051402551
abababag3
(g30
g5
Ntp424
Rp425
(lp426
g3
(g9
g5
Ntp427
Rp428
(lp429
I779731
ag3
(g13
g5
Ntp430
Rp431
(lp432
I1405968898
aI742224651
abag40
aba(lp433
S'two_outer_yaw_joint'
p434
aS'two_outer_pitch_joint_1'
p435
aS'two_outer_insertion_joint'
p436
aS'two_outer_roll_joint'
p437
aS'two_outer_wrist_pitch_joint'
p438
aS'two_outer_wrist_yaw_joint'
p439
aS'two_outer_wrist_open_angle_joint_1'
p440
aS'one_outer_yaw_joint'
p441
aS'one_outer_pitch_joint_1'
p442
aS'one_outer_insertion_joint'
p443
aS'one_outer_roll_joint'
p444
aS'one_outer_wrist_pitch_joint'
p445
aS'one_outer_wrist_yaw_joint'
p446
aS'one_outer_wrist_open_angle_joint_1'
p447
aS'one_outer_pitch_joint_2'
p448
aS'two_outer_pitch_joint_2'
p449
aS'one_outer_pitch_joint_3'
p450
aS'two_outer_pitch_joint_3'
p451
aS'one_outer_pitch_joint_4'
p452
aS'two_outer_pitch_joint_4'
p453
aS'one_outer_pitch_joint_5'
p454
aS'two_outer_pitch_joint_5'
p455
aS'one_outer_wrist_open_angle_joint_2'
p456
aS'two_outer_wrist_open_angle_joint_2'
p457
aa(F0.2246482113689196
F-0.1927931498451809
F0.10967599212206611
F-4.533120292597605
F0.09084998362093434
F0.055325296950831465
F0.17464717045784667
F-0.4450789239934777
F0.0006936537357335459
F0.1737293227866709
F-4.530972779910317
F-0.16511002418209872
F-0.10385142309412097
F-0.2033745741299134
F0.0006936537357335459
F-0.1927931498451809
F-0.0006936537357335459
F0.1927931498451809
F-0.0006936537357335459
F0.1927931498451809
F0.0006936537357335459
F-0.1927931498451809
F0.2033745741299134
F-0.17464717045784667
tp458
a(ta(tabasS'22'
p459
(lp460
g3
(g4
g5
Ntp461
Rp462
(lp463
g3
(g9
g5
Ntp464
Rp465
(lp466
I802509
ag3
(g13
g5
Ntp467
Rp468
(lp469
I1405968932
aI293558989
abaS'/two_remote_center_link'
p470
abag3
(g18
g5
Ntp471
Rp472
(lp473
g3
(g22
g5
Ntp474
Rp475
(lp476
F0.02300153798006095
aF0.02146587562352567
aF-0.10883960519729875
abag3
(g26
g5
Ntp477
Rp478
(lp479
F0.992352884583374
aF-0.07450408783769494
aF0.055633342065004414
aF-0.0811777346641811
abababag3
(g30
g5
Ntp480
Rp481
(lp482
g3
(g9
g5
Ntp483
Rp484
(lp485
I795973
ag3
(g13
g5
Ntp486
Rp487
(lp488
I1405968932
aI254475663
abag40
aba(lp489
S'two_outer_yaw_joint'
p490
aS'two_outer_pitch_joint_1'
p491
aS'two_outer_insertion_joint'
p492
aS'two_outer_roll_joint'
p493
aS'two_outer_wrist_pitch_joint'
p494
aS'two_outer_wrist_yaw_joint'
p495
aS'two_outer_wrist_open_angle_joint_1'
p496
aS'one_outer_yaw_joint'
p497
aS'one_outer_pitch_joint_1'
p498
aS'one_outer_insertion_joint'
p499
aS'one_outer_roll_joint'
p500
aS'one_outer_wrist_pitch_joint'
p501
aS'one_outer_wrist_yaw_joint'
p502
aS'one_outer_wrist_open_angle_joint_1'
p503
aS'one_outer_pitch_joint_2'
p504
aS'two_outer_pitch_joint_2'
p505
aS'one_outer_pitch_joint_3'
p506
aS'two_outer_pitch_joint_3'
p507
aS'one_outer_pitch_joint_4'
p508
aS'two_outer_pitch_joint_4'
p509
aS'one_outer_pitch_joint_5'
p510
aS'two_outer_pitch_joint_5'
p511
aS'one_outer_wrist_open_angle_joint_2'
p512
aS'two_outer_wrist_open_angle_joint_2'
p513
aa(F0.2246482113689196
F-0.19280087257805512
F0.10967599212206611
F-4.533120292597605
F0.09084998362093434
F0.05548865443111259
F0.17432048232557812
F-0.5051617857549444
F-0.008550457514713172
F0.18190243123667085
F-4.529924330192895
F-0.2274162680751396
F-0.1144672715942556
F-0.20304788599764484
F-0.008550457514713172
F-0.19280087257805512
F0.008550457514713172
F0.19280087257805512
F0.008550457514713172
F0.19280087257805512
F-0.008550457514713172
F-0.19280087257805512
F0.20304788599764484
F-0.17432048232557812
tp514
a(ta(tabasS'23'
p515
(lp516
g3
(g4
g5
Ntp517
Rp518
(lp519
g3
(g9
g5
Ntp520
Rp521
(lp522
I816226
ag3
(g13
g5
Ntp523
Rp524
(lp525
I1405968960
aI537006279
abaS'/two_remote_center_link'
p526
abag3
(g18
g5
Ntp527
Rp528
(lp529
g3
(g22
g5
Ntp530
Rp531
(lp532
F0.0229998568989232
aF0.02146587562352567
aF-0.10883996045378315
abag3
(g26
g5
Ntp533
Rp534
(lp535
F0.9923533141952214
aF-0.0745047147494333
aF0.05562567838710075
aF-0.0811771592865919
abababag3
(g30
g5
Ntp536
Rp537
(lp538
g3
(g9
g5
Ntp539
Rp540
(lp541
I809707
ag3
(g13
g5
Ntp542
Rp543
(lp544
I1405968960
aI532897441
abag40
aba(lp545
S'two_outer_yaw_joint'
p546
aS'two_outer_pitch_joint_1'
p547
aS'two_outer_insertion_joint'
p548
aS'two_outer_roll_joint'
p549
aS'two_outer_wrist_pitch_joint'
p550
aS'two_outer_wrist_yaw_joint'
p551
aS'two_outer_wrist_open_angle_joint_1'
p552
aS'one_outer_yaw_joint'
p553
aS'one_outer_pitch_joint_1'
p554
aS'one_outer_insertion_joint'
p555
aS'one_outer_roll_joint'
p556
aS'one_outer_wrist_pitch_joint'
p557
aS'one_outer_wrist_yaw_joint'
p558
aS'one_outer_wrist_open_angle_joint_1'
p559
aS'one_outer_pitch_joint_2'
p560
aS'two_outer_pitch_joint_2'
p561
aS'one_outer_pitch_joint_3'
p562
aS'two_outer_pitch_joint_3'
p563
aS'one_outer_pitch_joint_4'
p564
aS'two_outer_pitch_joint_4'
p565
aS'one_outer_pitch_joint_5'
p566
aS'two_outer_pitch_joint_5'
p567
aS'one_outer_wrist_open_angle_joint_2'
p568
aS'two_outer_wrist_open_angle_joint_2'
p569
aa(F0.22463276590317116
F-0.19280087257805512
F0.10967599212206611
F-4.533120292597605
F0.09084998362093434
F0.05548865443111259
F0.17432048232557812
F-0.5510888781579575
F-0.015114780457804011
F0.19046701926667087
F-4.529504950305926
F-0.23971355305402922
F-0.10092747443553352
F-0.20321123006377914
F-0.015114780457804011
F-0.19280087257805512
F0.015114780457804011
F0.19280087257805512
F0.015114780457804011
F0.19280087257805512
F-0.015114780457804011
F-0.19280087257805512
F0.20321123006377914
F-0.17432048232557812
tp570
a(ta(tabasS'46'
p571
(lp572
g3
(g4
g5
Ntp573
Rp574
(lp575
g3
(g9
g5
Ntp576
Rp577
(lp578
I1307248
ag3
(g13
g5
Ntp579
Rp580
(lp581
I1405969971
aI944678586
abaS'/two_remote_center_link'
p582
abag3
(g18
g5
Ntp583
Rp584
(lp585
g3
(g22
g5
Ntp586
Rp587
(lp588
F0.02299342878640062
aF0.021465079570937066
aF-0.10883839520561905
abag3
(g26
g5
Ntp589
Rp590
(lp591
F0.9923597409817616
aF-0.07448607252422804
aF0.055489993705639395
aF-0.08120855913679738
abababag3
(g30
g5
Ntp592
Rp593
(lp594
g3
(g9
g5
Ntp595
Rp596
(lp597
I1300722
ag3
(g13
g5
Ntp598
Rp599
(lp600
I1405969971
aI926183786
abag40
aba(lp601
S'two_outer_yaw_joint'
p602
aS'two_outer_pitch_joint_1'
p603
aS'two_outer_insertion_joint'
p604
aS'two_outer_roll_joint'
p605
aS'two_outer_wrist_pitch_joint'
p606
aS'two_outer_wrist_yaw_joint'
p607
aS'two_outer_wrist_open_angle_joint_1'
p608
aS'one_outer_yaw_joint'
p609
aS'one_outer_pitch_joint_1'
p610
aS'one_outer_insertion_joint'
p611
aS'one_outer_roll_joint'
p612
aS'one_outer_wrist_pitch_joint'
p613
aS'one_outer_wrist_yaw_joint'
p614
aS'one_outer_wrist_open_angle_joint_1'
p615
aS'one_outer_pitch_joint_2'
p616
aS'two_outer_pitch_joint_2'
p617
aS'one_outer_pitch_joint_3'
p618
aS'two_outer_pitch_joint_3'
p619
aS'one_outer_pitch_joint_4'
p620
aS'two_outer_pitch_joint_4'
p621
aS'one_outer_pitch_joint_5'
p622
aS'two_outer_pitch_joint_5'
p623
aS'one_outer_wrist_open_angle_joint_2'
p624
aS'two_outer_wrist_open_angle_joint_2'
p625
aa(F0.22462504317029694
F-0.19278542711230667
F0.1096733995420661
F-4.533120292597605
F0.09112325662046523
F0.05542917610400089
F0.17464717045784672
F-0.4736221446966115
F-0.21836166424164466
F0.18145002602667085
F-4.530343710079863
F-0.21361598159883008
F0.15206891535045797
F-0.196677467418408
F-0.21836166424164466
F-0.19278542711230667
F0.21836166424164466
F0.19278542711230667
F0.21836166424164466
F0.19278542711230667
F-0.21836166424164466
F-0.19278542711230667
F0.196677467418408
F-0.17464717045784672
tp626
a(ta(tabasS'47'
p627
(lp628
g3
(g4
g5
Ntp629
Rp630
(lp631
g3
(g9
g5
Ntp632
Rp633
(lp634
I1315589
ag3
(g13
g5
Ntp635
Rp636
(lp637
I1405969989
aI138157581
abaS'/two_remote_center_link'
p638
abag3
(g18
g5
Ntp639
Rp640
(lp641
g3
(g22
g5
Ntp642
Rp643
(lp644
F0.022994111221689328
aF0.021466389186364926
aF-0.10884073462762583
abag3
(g26
g5
Ntp645
Rp646
(lp647
F0.9923564236478073
aF-0.07448380628572454
aF0.05549303562364484
aF-0.08124908641576889
abababag3
(g30
g5
Ntp648
Rp649
(lp650
g3
(g9
g5
Ntp651
Rp652
(lp653
I1309068
ag3
(g13
g5
Ntp654
Rp655
(lp656
I1405969989
aI129943802
abag40
aba(lp657
S'two_outer_yaw_joint'
p658
aS'two_outer_pitch_joint_1'
p659
aS'two_outer_insertion_joint'
p660
aS'two_outer_roll_joint'
p661
aS'two_outer_wrist_pitch_joint'
p662
aS'two_outer_wrist_yaw_joint'
p663
aS'two_outer_wrist_open_angle_joint_1'
p664
aS'one_outer_yaw_joint'
p665
aS'one_outer_pitch_joint_1'
p666
aS'one_outer_insertion_joint'
p667
aS'one_outer_roll_joint'
p668
aS'one_outer_wrist_pitch_joint'
p669
aS'one_outer_wrist_yaw_joint'
p670
aS'one_outer_wrist_open_angle_joint_1'
p671
aS'one_outer_pitch_joint_2'
p672
aS'two_outer_pitch_joint_2'
p673
aS'one_outer_pitch_joint_3'
p674
aS'two_outer_pitch_joint_3'
p675
aS'one_outer_pitch_joint_4'
p676
aS'two_outer_pitch_joint_4'
p677
aS'one_outer_pitch_joint_5'
p678
aS'two_outer_pitch_joint_5'
p679
aS'one_outer_wrist_open_angle_joint_2'
p680
aS'two_outer_wrist_open_angle_joint_2'
p681
aa(F0.22462504317029694
F-0.19277770437943245
F0.10967599212206611
F-4.533120292597605
F0.09112325662046523
F0.05534749736386031
F0.17448382639171245
F-0.5367091495461516
F-0.2301311091419628
F0.18996665132667087
F-4.52971464024941
F-0.355034758856061
F0.2505606252072983
F-0.1956974030216023
F-0.2301311091419628
F-0.19277770437943245
F0.2301311091419628
F0.19277770437943245
F0.2301311091419628
F0.19277770437943245
F-0.2301311091419628
F-0.19277770437943245
F0.1956974030216023
F-0.17448382639171245
tp682
a(ta(tabasS'44'
p683
(lp684
g3
(g4
g5
Ntp685
Rp686
(lp687
g3
(g9
g5
Ntp688
Rp689
(lp690
I1292242
ag3
(g13
g5
Ntp691
Rp692
(lp693
I1405969941
aI4791607
abaS'/two_remote_center_link'
p694
abag3
(g18
g5
Ntp695
Rp696
(lp697
g3
(g22
g5
Ntp698
Rp699
(lp700
F0.02299319745906526
aF0.021463453770309424
aF-0.10883867740538053
abag3
(g26
g5
Ntp701
Rp702
(lp703
F0.9923663706843305
aF-0.0744906046285354
aF0.05548390959198591
aF-0.08112750417258982
abababag3
(g30
g5
Ntp704
Rp705
(lp706
g3
(g9
g5
Ntp707
Rp708
(lp709
I1285722
ag3
(g13
g5
Ntp710
Rp711
(lp712
I1405969940
aI998556061
abag40
aba(lp713
S'two_outer_yaw_joint'
p714
aS'two_outer_pitch_joint_1'
p715
aS'two_outer_insertion_joint'
p716
aS'two_outer_roll_joint'
p717
aS'two_outer_wrist_pitch_joint'
p718
aS'two_outer_wrist_yaw_joint'
p719
aS'two_outer_wrist_open_angle_joint_1'
p720
aS'one_outer_yaw_joint'
p721
aS'one_outer_pitch_joint_1'
p722
aS'one_outer_insertion_joint'
p723
aS'one_outer_roll_joint'
p724
aS'one_outer_wrist_pitch_joint'
p725
aS'one_outer_wrist_yaw_joint'
p726
aS'one_outer_wrist_open_angle_joint_1'
p727
aS'one_outer_pitch_joint_2'
p728
aS'two_outer_pitch_joint_2'
p729
aS'one_outer_pitch_joint_3'
p730
aS'two_outer_pitch_joint_3'
p731
aS'one_outer_pitch_joint_4'
p732
aS'two_outer_pitch_joint_4'
p733
aS'one_outer_pitch_joint_5'
p734
aS'two_outer_pitch_joint_5'
p735
aS'one_outer_wrist_open_angle_joint_2'
p736
aS'two_outer_wrist_open_angle_joint_2'
p737
aa(F0.22462504317029694
F-0.19278542711230667
F0.1096733995420661
F-4.533120292597605
F0.09112325662046523
F0.055592533584282004
F0.17432048232557817
F-0.359094016171862
F-0.21704879965302648
F0.16638065477667086
F-4.5307630899668325
F-0.18697186414456923
F0.09293356114527838
F-0.19373727422799092
F-0.21704879965302648
F-0.19278542711230667
F0.21704879965302648
F0.19278542711230667
F0.21704879965302648
F0.19278542711230667
F-0.21704879965302648
F-0.19278542711230667
F0.19373727422799092
F-0.17432048232557817
tp738
a(ta(tabasS'45'
p739
(lp740
g3
(g4
g5
Ntp741
Rp742
(lp743
g3
(g9
g5
Ntp744
Rp745
(lp746
I1299492
ag3
(g13
g5
Ntp747
Rp748
(lp749
I1405969955
aI956661479
abaS'/two_remote_center_link'
p750
abag3
(g18
g5
Ntp751
Rp752
(lp753
g3
(g22
g5
Ntp754
Rp755
(lp756
F0.02299342878640062
aF0.021465079570937066
aF-0.10883839520561905
abag3
(g26
g5
Ntp757
Rp758
(lp759
F0.9923597409817616
aF-0.07448607252422804
aF0.055489993705639395
aF-0.08120855913679738
abababag3
(g30
g5
Ntp760
Rp761
(lp762
g3
(g9
g5
Ntp763
Rp764
(lp765
I1292972
ag3
(g13
g5
Ntp766
Rp767
(lp768
I1405969955
aI950488201
abag40
aba(lp769
S'two_outer_yaw_joint'
p770
aS'two_outer_pitch_joint_1'
p771
aS'two_outer_insertion_joint'
p772
aS'two_outer_roll_joint'
p773
aS'two_outer_wrist_pitch_joint'
p774
aS'two_outer_wrist_yaw_joint'
p775
aS'two_outer_wrist_open_angle_joint_1'
p776
aS'one_outer_yaw_joint'
p777
aS'one_outer_pitch_joint_1'
p778
aS'one_outer_insertion_joint'
p779
aS'one_outer_roll_joint'
p780
aS'one_outer_wrist_pitch_joint'
p781
aS'one_outer_wrist_yaw_joint'
p782
aS'one_outer_wrist_open_angle_joint_1'
p783
aS'one_outer_pitch_joint_2'
p784
aS'two_outer_pitch_joint_2'
p785
aS'one_outer_pitch_joint_3'
p786
aS'two_outer_pitch_joint_3'
p787
aS'one_outer_pitch_joint_4'
p788
aS'two_outer_pitch_joint_4'
p789
aS'one_outer_pitch_joint_5'
p790
aS'two_outer_pitch_joint_5'
p791
aS'one_outer_wrist_open_angle_joint_2'
p792
aS'two_outer_wrist_open_angle_joint_2'
p793
aa(F0.22462504317029694
F-0.19278542711230667
F0.1096733995420661
F-4.533120292597605
F0.09112325662046523
F0.05542917610400089
F0.17464717045784672
F-0.4197406374331471
F-0.21994482448086067
F0.17366710086667086
F-4.531392159797286
F-0.18437577064902586
F0.13165599104532744
F-0.19602409115387087
F-0.21994482448086067
F-0.19278542711230667
F0.21994482448086067
F0.19278542711230667
F0.21994482448086067
F0.19278542711230667
F-0.21994482448086067
F-0.19278542711230667
F0.19602409115387087
F-0.17464717045784672
tp794
a(ta(tabasS'28'
p795
(lp796
g3
(g4
g5
Ntp797
Rp798
(lp799
g3
(g9
g5
Ntp800
Rp801
(lp802
I880027
ag3
(g13
g5
Ntp803
Rp804
(lp805
I1405969092
aI69127413
abaS'/two_remote_center_link'
p806
abag3
(g18
g5
Ntp807
Rp808
(lp809
g3
(g22
g5
Ntp810
Rp811
(lp812
F0.02299434732694861
aF0.02147140471975638
aF-0.10883982570023241
abag3
(g26
g5
Ntp813
Rp814
(lp815
F0.9923457348965993
aF-0.07447507306455434
aF0.05550110978429482
aF-0.08138201728434412
abababag3
(g30
g5
Ntp816
Rp817
(lp818
g3
(g9
g5
Ntp819
Rp820
(lp821
I873504
ag3
(g13
g5
Ntp822
Rp823
(lp824
I1405969092
aI56795551
abag40
aba(lp825
S'two_outer_yaw_joint'
p826
aS'two_outer_pitch_joint_1'
p827
aS'two_outer_insertion_joint'
p828
aS'two_outer_roll_joint'
p829
aS'two_outer_wrist_pitch_joint'
p830
aS'two_outer_wrist_yaw_joint'
p831
aS'two_outer_wrist_open_angle_joint_1'
p832
aS'one_outer_yaw_joint'
p833
aS'one_outer_pitch_joint_1'
p834
aS'one_outer_insertion_joint'
p835
aS'one_outer_roll_joint'
p836
aS'one_outer_wrist_pitch_joint'
p837
aS'one_outer_wrist_yaw_joint'
p838
aS'one_outer_wrist_open_angle_joint_1'
p839
aS'one_outer_pitch_joint_2'
p840
aS'two_outer_pitch_joint_2'
p841
aS'one_outer_pitch_joint_3'
p842
aS'two_outer_pitch_joint_3'
p843
aS'one_outer_pitch_joint_4'
p844
aS'two_outer_pitch_joint_4'
p845
aS'one_outer_pitch_joint_5'
p846
aS'two_outer_pitch_joint_5'
p847
aS'one_outer_wrist_open_angle_joint_2'
p848
aS'two_outer_wrist_open_angle_joint_2'
p849
aa(F0.22462504317029694
F-0.19280859531092934
F0.10967599212206611
F-4.533120292597605
F0.09112325662046523
F0.05510246114343863
F0.17432048232557817
F-0.3720141482704396
F-0.05592170096520632
F0.16623028513667085
F-4.532440609514708
F-0.12534880275035556
F-0.09175911969317321
F-0.20386460632831627
F-0.05592170096520632
F-0.19280859531092934
F0.05592170096520632
F0.19280859531092934
F0.05592170096520632
F0.19280859531092934
F-0.05592170096520632
F-0.19280859531092934
F0.20386460632831627
F-0.17432048232557817
tp850
a(ta(tabasS'29'
p851
(lp852
g3
(g4
g5
Ntp853
Rp854
(lp855
g3
(g9
g5
Ntp856
Rp857
(lp858
I890700
ag3
(g13
g5
Ntp859
Rp860
(lp861
I1405969114
aI75914951
abaS'/two_remote_center_link'
p862
abag3
(g18
g5
Ntp863
Rp864
(lp865
g3
(g22
g5
Ntp866
Rp867
(lp868
F0.02299507224621535
aF0.021470591868893305
aF-0.10883978953720576
abag3
(g26
g5
Ntp869
Rp870
(lp871
F0.9923488433535994
aF-0.07447702554295235
aF0.05550190004587321
aF-0.08134177802547668
abababag3
(g30
g5
Ntp872
Rp873
(lp874
g3
(g9
g5
Ntp875
Rp876
(lp877
I884173
ag3
(g13
g5
Ntp878
Rp879
(lp880
I1405969114
aI55370164
abag40
aba(lp881
S'two_outer_yaw_joint'
p882
aS'two_outer_pitch_joint_1'
p883
aS'two_outer_insertion_joint'
p884
aS'two_outer_roll_joint'
p885
aS'two_outer_wrist_pitch_joint'
p886
aS'two_outer_wrist_yaw_joint'
p887
aS'two_outer_wrist_open_angle_joint_1'
p888
aS'one_outer_yaw_joint'
p889
aS'one_outer_pitch_joint_1'
p890
aS'one_outer_insertion_joint'
p891
aS'one_outer_roll_joint'
p892
aS'one_outer_wrist_pitch_joint'
p893
aS'one_outer_wrist_yaw_joint'
p894
aS'one_outer_wrist_open_angle_joint_1'
p895
aS'one_outer_pitch_joint_2'
p896
aS'two_outer_pitch_joint_2'
p897
aS'one_outer_pitch_joint_3'
p898
aS'two_outer_pitch_joint_3'
p899
aS'one_outer_pitch_joint_4'
p900
aS'two_outer_pitch_joint_4'
p901
aS'one_outer_pitch_joint_5'
p902
aS'two_outer_pitch_joint_5'
p903
aS'one_outer_wrist_open_angle_joint_2'
p904
aS'two_outer_wrist_open_angle_joint_2'
p905
aa(F0.22463276590317116
F-0.19280859531092934
F0.10967599212206611
F-4.533120292597605
F0.09112325662046523
F0.05518413988357919
F0.174810514523981
F-0.43235958294962995
F-0.06488779383218096
F0.17361913813667088
F-4.53160184974077
F-0.13614308623182536
F-0.06057713050264188
F-0.20157778940243637
F-0.06488779383218096
F-0.19280859531092934
F0.06488779383218096
F0.19280859531092934
F0.06488779383218096
F0.19280859531092934
F-0.06488779383218096
F-0.19280859531092934
F0.20157778940243637
F-0.174810514523981
tp906
a(ta(tabasS'40'
p907
(lp908
g3
(g4
g5
Ntp909
Rp910
(lp911
g3
(g9
g5
Ntp912
Rp913
(lp914
I1258342
ag3
(g13
g5
Ntp915
Rp916
(lp917
I1405969871
aI102224141
abaS'/two_remote_center_link'
p918
abag3
(g18
g5
Ntp919
Rp920
(lp921
g3
(g22
g5
Ntp922
Rp923
(lp924
F0.02299507291599135
aF0.02146593853661016
aF-0.10883787844131827
abag3
(g26
g5
Ntp925
Rp926
(lp927
F0.9923590707803912
aF-0.07448480069789876
aF0.05549730719143649
aF-0.0812129176878426
abababag3
(g30
g5
Ntp928
Rp929
(lp930
g3
(g9
g5
Ntp931
Rp932
(lp933
I1251816
ag3
(g13
g5
Ntp934
Rp935
(lp936
I1405969871
aI83758271
abag40
aba(lp937
S'two_outer_yaw_joint'
p938
aS'two_outer_pitch_joint_1'
p939
aS'two_outer_insertion_joint'
p940
aS'two_outer_roll_joint'
p941
aS'two_outer_wrist_pitch_joint'
p942
aS'two_outer_wrist_yaw_joint'
p943
aS'two_outer_wrist_open_angle_joint_1'
p944
aS'one_outer_yaw_joint'
p945
aS'one_outer_pitch_joint_1'
p946
aS'one_outer_insertion_joint'
p947
aS'one_outer_roll_joint'
p948
aS'one_outer_wrist_pitch_joint'
p949
aS'one_outer_wrist_yaw_joint'
p950
aS'one_outer_wrist_open_angle_joint_1'
p951
aS'one_outer_pitch_joint_2'
p952
aS'two_outer_pitch_joint_2'
p953
aS'one_outer_pitch_joint_3'
p954
aS'two_outer_pitch_joint_3'
p955
aS'one_outer_pitch_joint_4'
p956
aS'two_outer_pitch_joint_4'
p957
aS'one_outer_pitch_joint_5'
p958
aS'two_outer_pitch_joint_5'
p959
aS'one_outer_wrist_open_angle_joint_2'
p960
aS'two_outer_wrist_open_angle_joint_2'
p961
aa(F0.22463276590317116
F-0.1927931498451809
F0.1096733995420661
F-4.533120292597605
F0.09112325662046523
F0.05542917610400089
F0.17464717045784672
F-0.06590818533480272
F-0.1884746880183958
F0.14701926733667084
F-4.532230919571224
F-0.19134423213706328
F0.049860373443302755
F-0.1922671776327824
F-0.1884746880183958
F-0.1927931498451809
F0.1884746880183958
F0.1927931498451809
F0.1884746880183958
F0.1927931498451809
F-0.1884746880183958
F-0.1927931498451809
F0.1922671776327824
F-0.17464717045784672
tp962
a(ta(tabasS'41'
p963
(lp964
g3
(g4
g5
Ntp965
Rp966
(lp967
g3
(g9
g5
Ntp968
Rp969
(lp970
I1267613
ag3
(g13
g5
Ntp971
Rp972
(lp973
I1405969890
aI238782940
abaS'/two_remote_center_link'
p974
abag3
(g18
g5
Ntp975
Rp976
(lp977
g3
(g22
g5
Ntp978
Rp979
(lp980
F0.022993313126891332
aF0.02146426667582317
aF-0.10883853633886618
abag3
(g26
g5
Ntp981
Rp982
(lp983
F0.9923630566606044
aF-0.07448833863849956
aF0.05548695169508471
aF-0.08116803172238184
abababag3
(g30
g5
Ntp984
Rp985
(lp986
g3
(g9
g5
Ntp987
Rp988
(lp989
I1261082
ag3
(g13
g5
Ntp990
Rp991
(lp992
I1405969890
aI210004508
abag40
aba(lp993
S'two_outer_yaw_joint'
p994
aS'two_outer_pitch_joint_1'
p995
aS'two_outer_insertion_joint'
p996
aS'two_outer_roll_joint'
p997
aS'two_outer_wrist_pitch_joint'
p998
aS'two_outer_wrist_yaw_joint'
p999
aS'two_outer_wrist_open_angle_joint_1'
p1000
aS'one_outer_yaw_joint'
p1001
aS'one_outer_pitch_joint_1'
p1002
aS'one_outer_insertion_joint'
p1003
aS'one_outer_roll_joint'
p1004
aS'one_outer_wrist_pitch_joint'
p1005
aS'one_outer_wrist_yaw_joint'
p1006
aS'one_outer_wrist_open_angle_joint_1'
p1007
aS'one_outer_pitch_joint_2'
p1008
aS'two_outer_pitch_joint_2'
p1009
aS'one_outer_pitch_joint_3'
p1010
aS'two_outer_pitch_joint_3'
p1011
aS'one_outer_pitch_joint_4'
p1012
aS'two_outer_pitch_joint_4'
p1013
aS'one_outer_pitch_joint_5'
p1014
aS'two_outer_pitch_joint_5'
p1015
aS'one_outer_wrist_open_angle_joint_2'
p1016
aS'two_outer_wrist_open_angle_joint_2'
p1017
aa(F0.22462504317029694
F-0.19278542711230667
F0.1096733995420661
F-4.533120292597605
F0.09112325662046523
F0.055510854844141436
F0.174810514523981
F-0.14097314887226498
F-0.19680751678968406
F0.15042721374667087
F-4.532440609514708
F-0.11236833527263872
F0.019112466044682794
F-0.19390061829412525
F-0.19680751678968406
F-0.19278542711230667
F0.19680751678968406
F0.19278542711230667
F0.19680751678968406
F0.19278542711230667
F-0.19680751678968406
F-0.19278542711230667
F0.19390061829412525
F-0.174810514523981
tp1018
a(ta(tabasS'1'
p1019
(lp1020
g3
(g4
g5
Ntp1021
Rp1022
(lp1023
g3
(g9
g5
Ntp1024
Rp1025
(lp1026
I521078
ag3
(g13
g5
Ntp1027
Rp1028
(lp1029
I1405968352
aI200278279
abaS'/two_remote_center_link'
p1030
abag3
(g18
g5
Ntp1031
Rp1032
(lp1033
g3
(g22
g5
Ntp1034
Rp1035
(lp1036
F0.02300288286969552
aF0.021471657929203684
aF-0.10883839775713824
abag3
(g26
g5
Ntp1037
Rp1038
(lp1039
F0.9923355882120684
aF-0.07449112363400111
aF0.05565168533941934
aF-0.08138822265189677
abababag3
(g30
g5
Ntp1040
Rp1041
(lp1042
g3
(g9
g5
Ntp1043
Rp1044
(lp1045
I514555
ag3
(g13
g5
Ntp1046
Rp1047
(lp1048
I1405968352
aI187958043
abag40
aba(lp1049
S'two_outer_yaw_joint'
p1050
aS'two_outer_pitch_joint_1'
p1051
aS'two_outer_insertion_joint'
p1052
aS'two_outer_roll_joint'
p1053
aS'two_outer_wrist_pitch_joint'
p1054
aS'two_outer_wrist_yaw_joint'
p1055
aS'two_outer_wrist_open_angle_joint_1'
p1056
aS'one_outer_yaw_joint'
p1057
aS'one_outer_pitch_joint_1'
p1058
aS'one_outer_insertion_joint'
p1059
aS'one_outer_roll_joint'
p1060
aS'one_outer_wrist_pitch_joint'
p1061
aS'one_outer_wrist_yaw_joint'
p1062
aS'one_outer_wrist_open_angle_joint_1'
p1063
aS'one_outer_pitch_joint_2'
p1064
aS'two_outer_pitch_joint_2'
p1065
aS'one_outer_pitch_joint_3'
p1066
aS'two_outer_pitch_joint_3'
p1067
aS'one_outer_pitch_joint_4'
p1068
aS'two_outer_pitch_joint_4'
p1069
aS'one_outer_pitch_joint_5'
p1070
aS'two_outer_pitch_joint_5'
p1071
aS'one_outer_wrist_open_angle_joint_2'
p1072
aS'two_outer_wrist_open_angle_joint_2'
p1073
aa(F0.22465593410179385
F-0.19281631804380356
F0.10967599212206611
F-4.533120292597605
F0.09084998362093434
F0.055080260730409794
F0.174810514523981
F-0.1948314879371067
F0.21991887183634468
F0.15589237238667086
F-4.5307630899668325
F-0.012487053944101746
F-0.42098536951461
F-0.18393663025993423
F0.21991887183634468
F-0.19281631804380356
F-0.21991887183634468
F0.19281631804380356
F-0.21991887183634468
F0.19281631804380356
F0.21991887183634468
F-0.19281631804380356
F0.18393663025993423
F-0.174810514523981
tp1074
a(ta(tabasS'0'
p1075
(lp1076
g3
(g4
g5
Ntp1077
Rp1078
(lp1079
g3
(g9
g5
Ntp1080
Rp1081
(lp1082
I510037
ag3
(g13
g5
Ntp1083
Rp1084
(lp1085
I1405968329
aI428159293
abaS'/two_remote_center_link'
p1086
abag3
(g18
g5
Ntp1087
Rp1088
(lp1089
g3
(g22
g5
Ntp1090
Rp1091
(lp1092
F0.023002651608682922
aF0.021470032228390237
aF-0.10883868058558718
abag3
(g26
g5
Ntp1093
Rp1094
(lp1095
F0.9923422325894073
aF-0.07449566894506064
aF0.05564560081265824
aF-0.08130716965985765
abababag3
(g30
g5
Ntp1096
Rp1097
(lp1098
g3
(g9
g5
Ntp1099
Rp1100
(lp1101
I503512
ag3
(g13
g5
Ntp1102
Rp1103
(lp1104
I1405968329
aI411727446
abag40
aba(lp1105
S'two_outer_yaw_joint'
p1106
aS'two_outer_pitch_joint_1'
p1107
aS'two_outer_insertion_joint'
p1108
aS'two_outer_roll_joint'
p1109
aS'two_outer_wrist_pitch_joint'
p1110
aS'two_outer_wrist_yaw_joint'
p1111
aS'two_outer_wrist_open_angle_joint_1'
p1112
aS'one_outer_yaw_joint'
p1113
aS'one_outer_pitch_joint_1'
p1114
aS'one_outer_insertion_joint'
p1115
aS'one_outer_roll_joint'
p1116
aS'one_outer_wrist_pitch_joint'
p1117
aS'one_outer_wrist_yaw_joint'
p1118
aS'one_outer_wrist_open_angle_joint_1'
p1119
aS'one_outer_pitch_joint_2'
p1120
aS'two_outer_pitch_joint_2'
p1121
aS'one_outer_pitch_joint_3'
p1122
aS'two_outer_pitch_joint_3'
p1123
aS'one_outer_pitch_joint_4'
p1124
aS'two_outer_pitch_joint_4'
p1125
aS'one_outer_pitch_joint_5'
p1126
aS'two_outer_pitch_joint_5'
p1127
aS'one_outer_wrist_open_angle_joint_2'
p1128
aS'two_outer_wrist_open_angle_joint_2'
p1129
aa(F0.22465593410179385
F-0.19281631804380356
F0.10967599212206611
F-4.533120292597605
F0.09084998362093434
F0.05524361821069092
F0.17448382639171245
F-0.11731841807851529
F0.24038411395303966
F0.15337108833667085
F-4.530972779910317
F-0.06003655586247503
F-0.35239919887695015
F-0.1693990083739833
F0.24038411395303966
F-0.19281631804380356
F-0.24038411395303966
F0.19281631804380356
F-0.24038411395303966
F0.19281631804380356
F0.24038411395303966
F-0.19281631804380356
F0.1693990083739833
F-0.17448382639171245
tp1130
a(ta(tabasS'3'
p1131
(lp1132
g3
(g4
g5
Ntp1133
Rp1134
(lp1135
g3
(g9
g5
Ntp1136
Rp1137
(lp1138
I555665
ag3
(g13
g5
Ntp1139
Rp1140
(lp1141
I1405968423
aI515136341
abaS'/two_remote_center_link'
p1142
abag3
(g18
g5
Ntp1143
Rp1144
(lp1145
g3
(g22
g5
Ntp1146
Rp1147
(lp1148
F0.02300180623019194
aF0.02146664240232141
aF-0.10883948441406517
abag3
(g26
g5
Ntp1149
Rp1150
(lp1151
F0.9923464925727531
aF-0.07450018768318707
aF0.05563977761801318
aF-0.0812550051402551
abababag3
(g30
g5
Ntp1152
Rp1153
(lp1154
g3
(g9
g5
Ntp1155
Rp1156
(lp1157
I549144
ag3
(g13
g5
Ntp1158
Rp1159
(lp1160
I1405968423
aI506890827
abag40
aba(lp1161
S'two_outer_yaw_joint'
p1162
aS'two_outer_pitch_joint_1'
p1163
aS'two_outer_insertion_joint'
p1164
aS'two_outer_roll_joint'
p1165
aS'two_outer_wrist_pitch_joint'
p1166
aS'two_outer_wrist_yaw_joint'
p1167
aS'two_outer_wrist_open_angle_joint_1'
p1168
aS'one_outer_yaw_joint'
p1169
aS'one_outer_pitch_joint_1'
p1170
aS'one_outer_insertion_joint'
p1171
aS'one_outer_roll_joint'
p1172
aS'one_outer_wrist_pitch_joint'
p1173
aS'one_outer_wrist_yaw_joint'
p1174
aS'one_outer_wrist_open_angle_joint_1'
p1175
aS'one_outer_pitch_joint_2'
p1176
aS'two_outer_pitch_joint_2'
p1177
aS'one_outer_pitch_joint_3'
p1178
aS'two_outer_pitch_joint_3'
p1179
aS'one_outer_pitch_joint_4'
p1180
aS'two_outer_pitch_joint_4'
p1181
aS'one_outer_pitch_joint_5'
p1182
aS'two_outer_pitch_joint_5'
p1183
aS'one_outer_wrist_open_angle_joint_2'
p1184
aS'two_outer_wrist_open_angle_joint_2'
p1185
aa(F0.2246482113689196
F-0.1927931498451809
F0.10967599212206611
F-4.533120292597605
F0.09084998362093434
F0.05532529695083148
F0.17432048232557817
F-0.33541611717948966
F0.17739750463086457
F0.16638454364667085
F-4.531392159797286
F-0.07971221182869846
F-0.12913605700805908
F-0.19765753181521362
F0.17739750463086457
F-0.1927931498451809
F-0.17739750463086457
F0.1927931498451809
F-0.17739750463086457
F0.1927931498451809
F0.17739750463086457
F-0.1927931498451809
F0.19765753181521362
F-0.17432048232557817
tp1186
a(ta(tabasS'2'
p1187
(lp1188
g3
(g4
g5
Ntp1189
Rp1190
(lp1191
g3
(g9
g5
Ntp1192
Rp1193
(lp1194
I539214
ag3
(g13
g5
Ntp1195
Rp1196
(lp1197
I1405968389
aI567296787
abaS'/two_remote_center_link'
p1198
abag3
(g18
g5
Ntp1199
Rp1200
(lp1201
g3
(g22
g5
Ntp1202
Rp1203
(lp1204
F0.023000361940479226
aF0.021467004620258915
aF-0.1088370198230054
abag3
(g26
g5
Ntp1205
Rp1206
(lp1207
F0.9923464656149058
aF-0.07449985729728975
aF0.05563559546652936
aF-0.08125850085605056
abababag3
(g30
g5
Ntp1208
Rp1209
(lp1210
g3
(g9
g5
Ntp1211
Rp1212
(lp1213
I532697
ag3
(g13
g5
Ntp1214
Rp1215
(lp1216
I1405968389
aI567296787
abag40
aba(lp1217
S'two_outer_yaw_joint'
p1218
aS'two_outer_pitch_joint_1'
p1219
aS'two_outer_insertion_joint'
p1220
aS'two_outer_roll_joint'
p1221
aS'two_outer_wrist_pitch_joint'
p1222
aS'two_outer_wrist_yaw_joint'
p1223
aS'two_outer_wrist_open_angle_joint_1'
p1224
aS'one_outer_yaw_joint'
p1225
aS'one_outer_pitch_joint_1'
p1226
aS'one_outer_insertion_joint'
p1227
aS'one_outer_roll_joint'
p1228
aS'one_outer_wrist_pitch_joint'
p1229
aS'one_outer_wrist_yaw_joint'
p1230
aS'one_outer_wrist_open_angle_joint_1'
p1231
aS'one_outer_pitch_joint_2'
p1232
aS'two_outer_pitch_joint_2'
p1233
aS'one_outer_pitch_joint_3'
p1234
aS'two_outer_pitch_joint_3'
p1235
aS'one_outer_pitch_joint_4'
p1236
aS'two_outer_pitch_joint_4'
p1237
aS'one_outer_pitch_joint_5'
p1238
aS'two_outer_pitch_joint_5'
p1239
aS'one_outer_wrist_open_angle_joint_2'
p1240
aS'two_outer_wrist_open_angle_joint_2'
p1241
aa(F0.22464048863604538
F-0.19280087257805512
F0.1096733995420661
F-4.533120292597605
F0.09084998362093434
F0.055325296950831465
F0.17464717045784667
F-0.2437009415651994
F0.1996853117058765
F0.16180734365667088
F-4.530553400023348
F0.06088674642993976
F-0.2045792846442068
F-0.18360994212766557
F0.1996853117058765
F-0.19280087257805512
F-0.1996853117058765
F0.19280087257805512
F-0.1996853117058765
F0.19280087257805512
F0.1996853117058765
F-0.19280087257805512
F0.18360994212766557
F-0.17464717045784667
tp1242
a(ta(tabasS'5'
p1243
(lp1244
g3
(g4
g5
Ntp1245
Rp1246
(lp1247
g3
(g9
g5
Ntp1248
Rp1249
(lp1250
I580462
ag3
(g13
g5
Ntp1251
Rp1252
(lp1253
I1405968474
aI680315421
abaS'/two_remote_center_link'
p1254
abag3
(g18
g5
Ntp1255
Rp1256
(lp1257
g3
(g22
g5
Ntp1258
Rp1259
(lp1260
F0.023000965691241722
aF0.02146664240232141
aF-0.10883966204762463
abag3
(g26
g5
Ntp1261
Rp1262
(lp1263
F0.9923467074109249
aF-0.07450050143798137
aF0.05563594580415796
aF-0.08125471746712506
abababag3
(g30
g5
Ntp1264
Rp1265
(lp1266
g3
(g9
g5
Ntp1267
Rp1268
(lp1269
I573936
ag3
(g13
g5
Ntp1270
Rp1271
(lp1272
I1405968474
aI661824970
abag40
aba(lp1273
S'two_outer_yaw_joint'
p1274
aS'two_outer_pitch_joint_1'
p1275
aS'two_outer_insertion_joint'
p1276
aS'two_outer_roll_joint'
p1277
aS'two_outer_wrist_pitch_joint'
p1278
aS'two_outer_wrist_yaw_joint'
p1279
aS'two_outer_wrist_open_angle_joint_1'
p1280
aS'one_outer_yaw_joint'
p1281
aS'one_outer_pitch_joint_1'
p1282
aS'one_outer_insertion_joint'
p1283
aS'one_outer_roll_joint'
p1284
aS'one_outer_wrist_pitch_joint'
p1285
aS'one_outer_wrist_yaw_joint'
p1286
aS'one_outer_wrist_open_angle_joint_1'
p1287
aS'one_outer_pitch_joint_2'
p1288
aS'two_outer_pitch_joint_2'
p1289
aS'one_outer_pitch_joint_3'
p1290
aS'two_outer_pitch_joint_3'
p1291
aS'one_outer_pitch_joint_4'
p1292
aS'two_outer_pitch_joint_4'
p1293
aS'one_outer_pitch_joint_5'
p1294
aS'two_outer_pitch_joint_5'
p1295
aS'one_outer_wrist_open_angle_joint_2'
p1296
aS'two_outer_wrist_open_angle_joint_2'
p1297
aa(F0.22464048863604538
F-0.1927931498451809
F0.10967599212206611
F-4.533120292597605
F0.09084998362093434
F0.05532529695083148
F0.17497385859011527
F-0.46667168510980944
F0.14316262979942734
F0.17924892560667086
F-4.52929526036244
F-0.24135319105121453
F-0.15104806587973063
F-0.20059772500563067
F0.14316262979942734
F-0.1927931498451809
F-0.14316262979942734
F0.1927931498451809
F-0.14316262979942734
F0.1927931498451809
F0.14316262979942734
F-0.1927931498451809
F0.20059772500563067
F-0.17497385859011527
tp1298
a(ta(tabasS'4'
p1299
(lp1300
g3
(g4
g5
Ntp1301
Rp1302
(lp1303
g3
(g9
g5
Ntp1304
Rp1305
(lp1306
I567504
ag3
(g13
g5
Ntp1307
Rp1308
(lp1309
I1405968447
aI933231374
abaS'/two_remote_center_link'
p1310
abag3
(g18
g5
Ntp1311
Rp1312
(lp1313
g3
(g22
g5
Ntp1314
Rp1315
(lp1316
F0.023001690573551007
aF0.02146582952328245
aF-0.10883962564221805
abag3
(g26
g5
Ntp1317
Rp1318
(lp1319
F0.9923498101484326
aF-0.07450245991452749
aF0.055636735030879396
aF-0.0812144782668575
abababag3
(g30
g5
Ntp1320
Rp1321
(lp1322
g3
(g9
g5
Ntp1323
Rp1324
(lp1325
I560984
ag3
(g13
g5
Ntp1326
Rp1327
(lp1328
I1405968447
aI927042977
abag40
aba(lp1329
S'two_outer_yaw_joint'
p1330
aS'two_outer_pitch_joint_1'
p1331
aS'two_outer_insertion_joint'
p1332
aS'two_outer_roll_joint'
p1333
aS'two_outer_wrist_pitch_joint'
p1334
aS'two_outer_wrist_yaw_joint'
p1335
aS'two_outer_wrist_open_angle_joint_1'
p1336
aS'one_outer_yaw_joint'
p1337
aS'one_outer_pitch_joint_1'
p1338
aS'one_outer_insertion_joint'
p1339
aS'one_outer_roll_joint'
p1340
aS'one_outer_wrist_pitch_joint'
p1341
aS'one_outer_wrist_yaw_joint'
p1342
aS'one_outer_wrist_open_angle_joint_1'
p1343
aS'one_outer_pitch_joint_2'
p1344
aS'two_outer_pitch_joint_2'
p1345
aS'one_outer_pitch_joint_3'
p1346
aS'two_outer_pitch_joint_3'
p1347
aS'one_outer_pitch_joint_4'
p1348
aS'two_outer_pitch_joint_4'
p1349
aS'one_outer_pitch_joint_5'
p1350
aS'two_outer_pitch_joint_5'
p1351
aS'one_outer_wrist_open_angle_joint_2'
p1352
aS'two_outer_wrist_open_angle_joint_2'
p1353
aa(F0.2246482113689196
F-0.1927931498451809
F0.10967599212206611
F-4.533120292597605
F0.09084998362093434
F0.05540697569097203
F0.1744838263917124
F-0.3994916318369304
F0.1564225621444708
F0.17174340650667086
F-4.5307630899668325
F-0.1351866307334673
F-0.092476655822071
F-0.20108775720403355
F0.1564225621444708
F-0.1927931498451809
F-0.1564225621444708
F0.1927931498451809
F-0.1564225621444708
F0.1927931498451809
F0.1564225621444708
F-0.1927931498451809
F0.20108775720403355
F-0.1744838263917124
tp1354
a(ta(tabasS'7'
p1355
(lp1356
g3
(g4
g5
Ntp1357
Rp1358
(lp1359
g3
(g9
g5
Ntp1360
Rp1361
(lp1362
I609074
ag3
(g13
g5
Ntp1363
Rp1364
(lp1365
I1405968533
aI606304843
abaS'/two_remote_center_link'
p1366
abag3
(g18
g5
Ntp1367
Rp1368
(lp1369
g3
(g22
g5
Ntp1370
Rp1371
(lp1372
F0.023001616712253137
aF0.02146754749964766
aF-0.10883930241082561
abag3
(g26
g5
Ntp1373
Rp1374
(lp1375
F0.9923493268533264
aF-0.07450117157420115
aF0.05563603440553973
aF-0.08122204505826626
abababag3
(g30
g5
Ntp1376
Rp1377
(lp1378
g3
(g9
g5
Ntp1379
Rp1380
(lp1381
I602542
ag3
(g13
g5
Ntp1382
Rp1383
(lp1384
I1405968533
aI575521290
abag40
aba(lp1385
S'two_outer_yaw_joint'
p1386
aS'two_outer_pitch_joint_1'
p1387
aS'two_outer_insertion_joint'
p1388
aS'two_outer_roll_joint'
p1389
aS'two_outer_wrist_pitch_joint'
p1390
aS'two_outer_wrist_yaw_joint'
p1391
aS'two_outer_wrist_open_angle_joint_1'
p1392
aS'one_outer_yaw_joint'
p1393
aS'one_outer_pitch_joint_1'
p1394
aS'one_outer_insertion_joint'
p1395
aS'one_outer_roll_joint'
p1396
aS'one_outer_wrist_pitch_joint'
p1397
aS'one_outer_wrist_yaw_joint'
p1398
aS'one_outer_wrist_open_angle_joint_1'
p1399
aS'one_outer_pitch_joint_2'
p1400
aS'two_outer_pitch_joint_2'
p1401
aS'one_outer_pitch_joint_3'
p1402
aS'two_outer_pitch_joint_3'
p1403
aS'one_outer_pitch_joint_4'
p1404
aS'two_outer_pitch_joint_4'
p1405
aS'one_outer_pitch_joint_5'
p1406
aS'two_outer_pitch_joint_5'
p1407
aS'one_outer_wrist_open_angle_joint_2'
p1408
aS'two_outer_wrist_open_angle_joint_2'
p1409
aa(F0.2246482113689196
F-0.19280859531092934
F0.10967599212206611
F-4.533120292597605
F0.09084998362093434
F0.05540697569097204
F0.174810514523981
F-0.5709363016447144
F0.10983131471427432
F0.19486662752667086
F-4.529504950305926
F-0.3230618179109479
F-0.05109523349192127
F-0.20059772500563067
F0.10983131471427432
F-0.19280859531092934
F-0.10983131471427432
F0.19280859531092934
F-0.10983131471427432
F0.19280859531092934
F0.10983131471427432
F-0.19280859531092934
F0.20059772500563067
F-0.174810514523981
tp1410
a(ta(tabasS'6'
p1411
(lp1412
g3
(g4
g5
Ntp1413
Rp1414
(lp1415
g3
(g9
g5
Ntp1416
Rp1417
(lp1418
I601745
ag3
(g13
g5
Ntp1419
Rp1420
(lp1421
I1405968518
aI515709733
abaS'/two_remote_center_link'
p1422
abag3
(g18
g5
Ntp1423
Rp1424
(lp1425
g3
(g22
g5
Ntp1426
Rp1427
(lp1428
F0.02300173236609717
aF0.021468360376957946
aF-0.10883916117043294
abag3
(g26
g5
Ntp1429
Rp1430
(lp1431
F0.9923460089686243
aF-0.07449889937147489
aF0.05563907694005907
aF-0.08126257191192005
abababag3
(g30
g5
Ntp1432
Rp1433
(lp1434
g3
(g9
g5
Ntp1435
Rp1436
(lp1437
I595224
ag3
(g13
g5
Ntp1438
Rp1439
(lp1440
I1405968518
aI507489809
abag40
aba(lp1441
S'two_outer_yaw_joint'
p1442
aS'two_outer_pitch_joint_1'
p1443
aS'two_outer_insertion_joint'
p1444
aS'two_outer_roll_joint'
p1445
aS'two_outer_wrist_pitch_joint'
p1446
aS'two_outer_wrist_yaw_joint'
p1447
aS'two_outer_wrist_open_angle_joint_1'
p1448
aS'one_outer_yaw_joint'
p1449
aS'one_outer_pitch_joint_1'
p1450
aS'one_outer_insertion_joint'
p1451
aS'one_outer_roll_joint'
p1452
aS'one_outer_wrist_pitch_joint'
p1453
aS'one_outer_wrist_yaw_joint'
p1454
aS'one_outer_wrist_open_angle_joint_1'
p1455
aS'one_outer_pitch_joint_2'
p1456
aS'two_outer_pitch_joint_2'
p1457
aS'one_outer_pitch_joint_3'
p1458
aS'two_outer_pitch_joint_3'
p1459
aS'one_outer_pitch_joint_4'
p1460
aS'two_outer_pitch_joint_4'
p1461
aS'one_outer_pitch_joint_5'
p1462
aS'two_outer_pitch_joint_5'
p1463
aS'one_outer_wrist_open_angle_joint_2'
p1464
aS'two_outer_wrist_open_angle_joint_2'
p1465
aa(F0.2246482113689196
F-0.19280859531092934
F0.10967599212206611
F-4.533120292597605
F0.09084998362093434
F0.05532529695083148
F0.17497385859011527
F-0.5215648703797973
F0.12397936133985366
F0.18720166475667088
F-4.52929526036244
F-0.27824504598788347
F-0.11410421770988963
F-0.2002710368733622
F0.12397936133985366
F-0.19280859531092934
F-0.12397936133985366
F0.19280859531092934
F-0.12397936133985366
F0.19280859531092934
F0.12397936133985366
F-0.19280859531092934
F0.2002710368733622
F-0.17497385859011527
tp1466
a(ta(tabasS'9'
p1467
(lp1468
g3
(g4
g5
Ntp1469
Rp1470
(lp1471
g3
(g9
g5
Ntp1472
Rp1473
(lp1474
I662281
ag3
(g13
g5
Ntp1475
Rp1476
(lp1477
I1405968643
aI271250913
abaS'/two_remote_center_link'
p1478
abag3
(g18
g5
Ntp1479
Rp1480
(lp1481
g3
(g22
g5
Ntp1482
Rp1483
(lp1484
F0.023000051291817602
aF0.021468360376957946
aF-0.10883951642991986
abag3
(g26
g5
Ntp1485
Rp1486
(lp1487
F0.9923464386247609
aF-0.0744995269383889
aF0.05563141331525383
aF-0.08126199657439753
abababag3
(g30
g5
Ntp1488
Rp1489
(lp1490
g3
(g9
g5
Ntp1491
Rp1492
(lp1493
I655761
ag3
(g13
g5
Ntp1494
Rp1495
(lp1496
I1405968643
aI265068027
abag40
aba(lp1497
S'two_outer_yaw_joint'
p1498
aS'two_outer_pitch_joint_1'
p1499
aS'two_outer_insertion_joint'
p1500
aS'two_outer_roll_joint'
p1501
aS'two_outer_wrist_pitch_joint'
p1502
aS'two_outer_wrist_yaw_joint'
p1503
aS'two_outer_wrist_open_angle_joint_1'
p1504
aS'one_outer_yaw_joint'
p1505
aS'one_outer_pitch_joint_1'
p1506
aS'one_outer_insertion_joint'
p1507
aS'one_outer_roll_joint'
p1508
aS'one_outer_wrist_pitch_joint'
p1509
aS'one_outer_wrist_yaw_joint'
p1510
aS'one_outer_wrist_open_angle_joint_1'
p1511
aS'one_outer_pitch_joint_2'
p1512
aS'two_outer_pitch_joint_2'
p1513
aS'one_outer_pitch_joint_3'
p1514
aS'two_outer_pitch_joint_3'
p1515
aS'one_outer_pitch_joint_4'
p1516
aS'two_outer_pitch_joint_4'
p1517
aS'one_outer_pitch_joint_5'
p1518
aS'two_outer_pitch_joint_5'
p1519
aS'one_outer_wrist_open_angle_joint_2'
p1520
aS'two_outer_wrist_open_angle_joint_2'
p1521
aa(F0.22463276590317116
F-0.19280859531092934
F0.10967599212206611
F-4.533120292597605
F0.09084998362093434
F0.055325296950831465
F0.17464717045784667
F-0.18989666163047722
F0.13633573393861287
F0.15345664347667087
F-4.531811539684255
F-0.13204399123886215
F-0.18529427546240998
F-0.20157778940243637
F0.13633573393861287
F-0.19280859531092934
F-0.13633573393861287
F0.19280859531092934
F-0.13633573393861287
F0.19280859531092934
F0.13633573393861287
F-0.19280859531092934
F0.20157778940243637
F-0.17464717045784667
tp1522
a(ta(tabasS'8'
p1523
(lp1524
g3
(g4
g5
Ntp1525
Rp1526
(lp1527
g3
(g9
g5
Ntp1528
Rp1529
(lp1530
I635142
ag3
(g13
g5
Ntp1531
Rp1532
(lp1533
I1405968587
aI351479160
abaS'/two_remote_center_link'
p1534
abag3
(g18
g5
Ntp1535
Rp1536
(lp1537
g3
(g22
g5
Ntp1538
Rp1539
(lp1540
F0.022999284609225998
aF0.02146664240232141
aF-0.10884001729526988
abag3
(g26
g5
Ntp1541
Rp1542
(lp1543
F0.9923471370428805
aF-0.07450112894423752
aF0.05562828217395903
aF-0.08125414211723045
abababag3
(g30
g5
Ntp1544
Rp1545
(lp1546
g3
(g9
g5
Ntp1547
Rp1548
(lp1549
I628611
ag3
(g13
g5
Ntp1550
Rp1551
(lp1552
I1405968587
aI322758132
abag40
aba(lp1553
S'two_outer_yaw_joint'
p1554
aS'two_outer_pitch_joint_1'
p1555
aS'two_outer_insertion_joint'
p1556
aS'two_outer_roll_joint'
p1557
aS'two_outer_wrist_pitch_joint'
p1558
aS'two_outer_wrist_yaw_joint'
p1559
aS'two_outer_wrist_open_angle_joint_1'
p1560
aS'one_outer_yaw_joint'
p1561
aS'one_outer_pitch_joint_1'
p1562
aS'one_outer_insertion_joint'
p1563
aS'one_outer_roll_joint'
p1564
aS'one_outer_wrist_pitch_joint'
p1565
aS'one_outer_wrist_yaw_joint'
p1566
aS'one_outer_wrist_open_angle_joint_1'
p1567
aS'one_outer_pitch_joint_2'
p1568
aS'two_outer_pitch_joint_2'
p1569
aS'one_outer_pitch_joint_3'
p1570
aS'two_outer_pitch_joint_3'
p1571
aS'one_outer_pitch_joint_4'
p1572
aS'two_outer_pitch_joint_4'
p1573
aS'one_outer_pitch_joint_5'
p1574
aS'two_outer_pitch_joint_5'
p1575
aS'one_outer_wrist_open_angle_joint_2'
p1576
aS'two_outer_wrist_open_angle_joint_2'
p1577
aa(F0.22462504317029694
F-0.1927931498451809
F0.10967599212206611
F-4.533120292597605
F0.09084998362093434
F0.05532529695083148
F0.17497385859011527
F-0.11656159025684129
F0.15398217855621588
F0.14885092510667086
F-4.532440609514708
F-0.11687733976489827
F-0.200030346236789
F-0.20141444533630198
F0.15398217855621588
F-0.1927931498451809
F-0.15398217855621588
F0.1927931498451809
F-0.15398217855621588
F0.1927931498451809
F0.15398217855621588
F-0.1927931498451809
F0.20141444533630198
F-0.17497385859011527
tp1578
a(ta(tabasS'39'
p1579
(lp1580
g3
(g4
g5
Ntp1581
Rp1582
(lp1583
g3
(g9
g5
Ntp1584
Rp1585
(lp1586
I1241356
ag3
(g13
g5
Ntp1587
Rp1588
(lp1589
I1405969836
aI92399449
abaS'/two_remote_center_link'
p1590
abag3
(g18
g5
Ntp1591
Rp1592
(lp1593
g3
(g22
g5
Ntp1594
Rp1595
(lp1596
F0.022993270673084282
aF0.021466389186364926
aF-0.1088409122017588
abag3
(g26
g5
Ntp1597
Rp1598
(lp1599
F0.9923566379193545
aF-0.07448412001766458
aF0.05548920377144313
aF-0.08124879880589342
abababag3
(g30
g5
Ntp1600
Rp1601
(lp1602
g3
(g9
g5
Ntp1603
Rp1604
(lp1605
I1234835
ag3
(g13
g5
Ntp1606
Rp1607
(lp1608
I1405969836
aI84188822
abag40
aba(lp1609
S'two_outer_yaw_joint'
p1610
aS'two_outer_pitch_joint_1'
p1611
aS'two_outer_insertion_joint'
p1612
aS'two_outer_roll_joint'
p1613
aS'two_outer_wrist_pitch_joint'
p1614
aS'two_outer_wrist_yaw_joint'
p1615
aS'two_outer_wrist_open_angle_joint_1'
p1616
aS'one_outer_yaw_joint'
p1617
aS'one_outer_pitch_joint_1'
p1618
aS'one_outer_insertion_joint'
p1619
aS'one_outer_roll_joint'
p1620
aS'one_outer_wrist_pitch_joint'
p1621
aS'one_outer_wrist_yaw_joint'
p1622
aS'one_outer_wrist_open_angle_joint_1'
p1623
aS'one_outer_pitch_joint_2'
p1624
aS'two_outer_pitch_joint_2'
p1625
aS'one_outer_pitch_joint_3'
p1626
aS'two_outer_pitch_joint_3'
p1627
aS'one_outer_pitch_joint_4'
p1628
aS'two_outer_pitch_joint_4'
p1629
aS'one_outer_pitch_joint_5'
p1630
aS'two_outer_pitch_joint_5'
p1631
aS'one_outer_wrist_open_angle_joint_2'
p1632
aS'two_outer_wrist_open_angle_joint_2'
p1633
aa(F0.22461732043742272
F-0.19278542711230667
F0.10967599212206611
F-4.533120292597605
F0.09112325662046523
F0.05534749736386031
F0.17448382639171245
F-0.5433970362152298
F-0.16338352891004038
F0.18898665608667084
F-4.529085570418956
F-0.3231984544107133
F0.23791388828894378
F-0.18606010311967977
F-0.16338352891004038
F-0.19278542711230667
F0.16338352891004038
F0.19278542711230667
F0.16338352891004038
F0.19278542711230667
F-0.16338352891004038
F-0.19278542711230667
F0.18606010311967977
F-0.17448382639171245
tp1634
a(ta(tabasS'38'
p1635
(lp1636
g3
(g4
g5
Ntp1637
Rp1638
(lp1639
g3
(g9
g5
Ntp1640
Rp1641
(lp1642
I1231167
ag3
(g13
g5
Ntp1643
Rp1644
(lp1645
I1405969815
aI93822252
abaS'/two_remote_center_link'
p1646
abag3
(g18
g5
Ntp1647
Rp1648
(lp1649
g3
(g22
g5
Ntp1650
Rp1651
(lp1652
F0.02299491484054635
aF0.021467248170824734
aF-0.10884039542975493
abag3
(g26
g5
Ntp1653
Rp1654
(lp1655
F0.992355967568224
aF-0.07448284790948811
aF0.05549651720788211
aF-0.08125315733447658
abababag3
(g30
g5
Ntp1656
Rp1657
(lp1658
g3
(g9
g5
Ntp1659
Rp1660
(lp1661
I1224637
ag3
(g13
g5
Ntp1662
Rp1663
(lp1664
I1405969815
aI67160780
abag40
aba(lp1665
S'two_outer_yaw_joint'
p1666
aS'two_outer_pitch_joint_1'
p1667
aS'two_outer_insertion_joint'
p1668
aS'two_outer_roll_joint'
p1669
aS'two_outer_wrist_pitch_joint'
p1670
aS'two_outer_wrist_yaw_joint'
p1671
aS'two_outer_wrist_open_angle_joint_1'
p1672
aS'one_outer_yaw_joint'
p1673
aS'one_outer_pitch_joint_1'
p1674
aS'one_outer_insertion_joint'
p1675
aS'one_outer_roll_joint'
p1676
aS'one_outer_wrist_pitch_joint'
p1677
aS'one_outer_wrist_yaw_joint'
p1678
aS'one_outer_wrist_open_angle_joint_1'
p1679
aS'one_outer_pitch_joint_2'
p1680
aS'two_outer_pitch_joint_2'
p1681
aS'one_outer_pitch_joint_3'
p1682
aS'two_outer_pitch_joint_3'
p1683
aS'one_outer_pitch_joint_4'
p1684
aS'two_outer_pitch_joint_4'
p1685
aS'one_outer_pitch_joint_5'
p1686
aS'two_outer_pitch_joint_5'
p1687
aS'one_outer_wrist_open_angle_joint_2'
p1688
aS'two_outer_wrist_open_angle_joint_2'
p1689
aa(F0.22462504317029694
F-0.1927931498451809
F0.10967599212206611
F-4.533120292597605
F0.09112325662046523
F0.05534749736386031
F0.17448382639171245
F-0.483167442529153
F-0.15164497494121912
F0.18070595556667088
F-4.529504950305926
F-0.22058444308686756
F0.1580779433995377
F-0.18164981333405428
F-0.15164497494121912
F-0.1927931498451809
F0.15164497494121912
F0.1927931498451809
F0.15164497494121912
F0.1927931498451809
F-0.15164497494121912
F-0.1927931498451809
F0.18164981333405428
F-0.17448382639171245
tp1690
a(ta(tabasS'11'
p1691
(lp1692
g3
(g4
g5
Ntp1693
Rp1694
(lp1695
g3
(g9
g5
Ntp1696
Rp1697
(lp1698
I680107
ag3
(g13
g5
Ntp1699
Rp1700
(lp1701
I1405968680
aI15092113
abaS'/two_remote_center_link'
p1702
abag3
(g18
g5
Ntp1703
Rp1704
(lp1705
g3
(g22
g5
Ntp1706
Rp1707
(lp1708
F0.023000051291817602
aF0.021468360376957946
aF-0.10883951642991986
abag3
(g26
g5
Ntp1709
Rp1710
(lp1711
F0.9923464386247609
aF-0.0744995269383889
aF0.05563141331525383
aF-0.08126199657439753
abababag3
(g30
g5
Ntp1712
Rp1713
(lp1714
g3
(g9
g5
Ntp1715
Rp1716
(lp1717
I673571
ag3
(g13
g5
Ntp1718
Rp1719
(lp1720
I1405968679
aI975956932
abag40
aba(lp1721
S'two_outer_yaw_joint'
p1722
aS'two_outer_pitch_joint_1'
p1723
aS'two_outer_insertion_joint'
p1724
aS'two_outer_roll_joint'
p1725
aS'two_outer_wrist_pitch_joint'
p1726
aS'two_outer_wrist_yaw_joint'
p1727
aS'two_outer_wrist_open_angle_joint_1'
p1728
aS'one_outer_yaw_joint'
p1729
aS'one_outer_pitch_joint_1'
p1730
aS'one_outer_insertion_joint'
p1731
aS'one_outer_roll_joint'
p1732
aS'one_outer_wrist_pitch_joint'
p1733
aS'one_outer_wrist_yaw_joint'
p1734
aS'one_outer_wrist_open_angle_joint_1'
p1735
aS'one_outer_pitch_joint_2'
p1736
aS'two_outer_pitch_joint_2'
p1737
aS'one_outer_pitch_joint_3'
p1738
aS'two_outer_pitch_joint_3'
p1739
aS'one_outer_pitch_joint_4'
p1740
aS'two_outer_pitch_joint_4'
p1741
aS'one_outer_pitch_joint_5'
p1742
aS'two_outer_pitch_joint_5'
p1743
aS'one_outer_wrist_open_angle_joint_2'
p1744
aS'two_outer_wrist_open_angle_joint_2'
p1745
aa(F0.22463276590317116
F-0.19280859531092934
F0.10967599212206611
F-4.533120292597605
F0.09084998362093434
F0.05532529695083148
F0.17497385859011527
F-0.33093693211243946
F0.10592361187991672
F0.16362214965667088
F-4.531392159797286
F-0.13149744523980036
F-0.20223905258558927
F-0.20255785379924202
F0.10592361187991672
F-0.19280859531092934
F-0.10592361187991672
F0.19280859531092934
F-0.10592361187991672
F0.19280859531092934
F0.10592361187991672
F-0.19280859531092934
F0.20255785379924202
F-0.17497385859011527
tp1746
a(ta(tabasS'10'
p1747
(lp1748
g3
(g4
g5
Ntp1749
Rp1750
(lp1751
g3
(g9
g5
Ntp1752
Rp1753
(lp1754
I671792
ag3
(g13
g5
Ntp1755
Rp1756
(lp1757
I1405968662
aI859245610
abaS'/two_remote_center_link'
p1758
abag3
(g18
g5
Ntp1759
Rp1760
(lp1761
g3
(g22
g5
Ntp1762
Rp1763
(lp1764
F0.023000051291817602
aF0.021468360376957946
aF-0.10883951642991986
abag3
(g26
g5
Ntp1765
Rp1766
(lp1767
F0.9923464386247609
aF-0.0744995269383889
aF0.05563141331525383
aF-0.08126199657439753
abababag3
(g30
g5
Ntp1768
Rp1769
(lp1770
g3
(g9
g5
Ntp1771
Rp1772
(lp1773
I665271
ag3
(g13
g5
Ntp1774
Rp1775
(lp1776
I1405968662
aI851017557
abag40
aba(lp1777
S'two_outer_yaw_joint'
p1778
aS'two_outer_pitch_joint_1'
p1779
aS'two_outer_insertion_joint'
p1780
aS'two_outer_roll_joint'
p1781
aS'two_outer_wrist_pitch_joint'
p1782
aS'two_outer_wrist_yaw_joint'
p1783
aS'two_outer_wrist_open_angle_joint_1'
p1784
aS'one_outer_yaw_joint'
p1785
aS'one_outer_pitch_joint_1'
p1786
aS'one_outer_insertion_joint'
p1787
aS'one_outer_roll_joint'
p1788
aS'one_outer_wrist_pitch_joint'
p1789
aS'one_outer_wrist_yaw_joint'
p1790
aS'one_outer_wrist_open_angle_joint_1'
p1791
aS'one_outer_pitch_joint_2'
p1792
aS'two_outer_pitch_joint_2'
p1793
aS'one_outer_pitch_joint_3'
p1794
aS'two_outer_pitch_joint_3'
p1795
aS'one_outer_pitch_joint_4'
p1796
aS'two_outer_pitch_joint_4'
p1797
aS'one_outer_pitch_joint_5'
p1798
aS'two_outer_pitch_joint_5'
p1799
aS'one_outer_wrist_open_angle_joint_2'
p1800
aS'two_outer_wrist_open_angle_joint_2'
p1801
aa(F0.22463276590317116
F-0.19280859531092934
F0.10967599212206611
F-4.533120292597605
F0.09084998362093434
F0.05532529695083148
F0.17432048232557817
F-0.2662667670236834
F0.11866612112238717
F0.15721329189667085
F-4.5311824698538015
F-0.12630525824871364
F-0.20557446678450705
F-0.20272119786537637
F0.11866612112238717
F-0.19280859531092934
F-0.11866612112238717
F0.19280859531092934
F-0.11866612112238717
F0.19280859531092934
F0.11866612112238717
F-0.19280859531092934
F0.20272119786537637
F-0.17432048232557817
tp1802
a(ta(tabasS'13'
p1803
(lp1804
g3
(g4
g5
Ntp1805
Rp1806
(lp1807
g3
(g9
g5
Ntp1808
Rp1809
(lp1810
I703104
ag3
(g13
g5
Ntp1811
Rp1812
(lp1813
I1405968727
aI400751153
abaS'/two_remote_center_link'
p1814
abag3
(g18
g5
Ntp1815
Rp1816
(lp1817
g3
(g22
g5
Ntp1818
Rp1819
(lp1820
F0.023000697440177974
aF0.02146587562352567
aF-0.10883978282878658
abag3
(g26
g5
Ntp1821
Rp1822
(lp1823
F0.9923530993966958
aF-0.07450440129411959
aF0.05562951022646733
aF-0.0811774469759917
abababag3
(g30
g5
Ntp1824
Rp1825
(lp1826
g3
(g9
g5
Ntp1827
Rp1828
(lp1829
I696571
ag3
(g13
g5
Ntp1830
Rp1831
(lp1832
I1405968727
aI367904011
abag40
aba(lp1833
S'two_outer_yaw_joint'
p1834
aS'two_outer_pitch_joint_1'
p1835
aS'two_outer_insertion_joint'
p1836
aS'two_outer_roll_joint'
p1837
aS'two_outer_wrist_pitch_joint'
p1838
aS'two_outer_wrist_yaw_joint'
p1839
aS'two_outer_wrist_open_angle_joint_1'
p1840
aS'one_outer_yaw_joint'
p1841
aS'one_outer_pitch_joint_1'
p1842
aS'one_outer_insertion_joint'
p1843
aS'one_outer_roll_joint'
p1844
aS'one_outer_wrist_pitch_joint'
p1845
aS'one_outer_wrist_yaw_joint'
p1846
aS'one_outer_wrist_open_angle_joint_1'
p1847
aS'one_outer_pitch_joint_2'
p1848
aS'two_outer_pitch_joint_2'
p1849
aS'one_outer_pitch_joint_3'
p1850
aS'two_outer_pitch_joint_3'
p1851
aS'one_outer_pitch_joint_4'
p1852
aS'two_outer_pitch_joint_4'
p1853
aS'one_outer_pitch_joint_5'
p1854
aS'two_outer_pitch_joint_5'
p1855
aS'one_outer_wrist_open_angle_joint_2'
p1856
aS'two_outer_wrist_open_angle_joint_2'
p1857
aa(F0.22464048863604538
F-0.19280087257805512
F0.10967599212206611
F-4.533120292597605
F0.09084998362093434
F0.05548865443111259
F0.17432048232557812
F-0.4561687684008641
F0.07692474993720372
F0.17695708488667086
F-4.530134020136379
F-0.2149823465964845
F-0.1121094535891239
F-0.202557853799242
F0.07692474993720372
F-0.19280087257805512
F-0.07692474993720372
F0.19280087257805512
F-0.07692474993720372
F0.19280087257805512
F0.07692474993720372
F-0.19280087257805512
F0.202557853799242
F-0.17432048232557812
tp1858
a(ta(tabasS'12'
p1859
(lp1860
g3
(g4
g5
Ntp1861
Rp1862
(lp1863
g3
(g9
g5
Ntp1864
Rp1865
(lp1866
I692316
ag3
(g13
g5
Ntp1867
Rp1868
(lp1869
I1405968705
aI162355803
abaS'/two_remote_center_link'
p1870
abag3
(g18
g5
Ntp1871
Rp1872
(lp1873
g3
(g22
g5
Ntp1874
Rp1875
(lp1876
F0.023000088222107484
aF0.021467501390279826
aF-0.10883967805553987
abag3
(g26
g5
Ntp1877
Rp1878
(lp1879
F0.992346680436929
aF-0.07450017106558225
aF0.055631763652778214
aF-0.0812582131841962
abababag3
(g30
g5
Ntp1880
Rp1881
(lp1882
g3
(g9
g5
Ntp1883
Rp1884
(lp1885
I685784
ag3
(g13
g5
Ntp1886
Rp1887
(lp1888
I1405968705
aI131475217
abag40
aba(lp1889
S'two_outer_yaw_joint'
p1890
aS'two_outer_pitch_joint_1'
p1891
aS'two_outer_insertion_joint'
p1892
aS'two_outer_roll_joint'
p1893
aS'two_outer_wrist_pitch_joint'
p1894
aS'two_outer_wrist_yaw_joint'
p1895
aS'two_outer_wrist_open_angle_joint_1'
p1896
aS'one_outer_yaw_joint'
p1897
aS'one_outer_pitch_joint_1'
p1898
aS'one_outer_insertion_joint'
p1899
aS'one_outer_roll_joint'
p1900
aS'one_outer_wrist_pitch_joint'
p1901
aS'one_outer_wrist_yaw_joint'
p1902
aS'one_outer_wrist_open_angle_joint_1'
p1903
aS'one_outer_pitch_joint_2'
p1904
aS'two_outer_pitch_joint_2'
p1905
aS'one_outer_pitch_joint_3'
p1906
aS'two_outer_pitch_joint_3'
p1907
aS'one_outer_pitch_joint_4'
p1908
aS'two_outer_pitch_joint_4'
p1909
aS'one_outer_pitch_joint_5'
p1910
aS'two_outer_pitch_joint_5'
p1911
aS'one_outer_wrist_open_angle_joint_2'
p1912
aS'two_outer_wrist_open_angle_joint_2'
p1913
aa(F0.22463276590317116
F-0.19280087257805512
F0.10967599212206611
F-4.533120292597605
F0.09084998362093434
F0.055325296950831465
F0.17464717045784667
F-0.39641798415298907
F0.09138942861062621
F0.16909249345667088
F-4.530553400023348
F-0.19517005413049562
F-0.15775107481584802
F-0.2017411334685706
F0.09138942861062621
F-0.19280087257805512
F-0.09138942861062621
F0.19280087257805512
F-0.09138942861062621
F0.19280087257805512
F0.09138942861062621
F-0.19280087257805512
F0.2017411334685706
F-0.17464717045784667
tp1914
a(ta(tabasS'15'
p1915
(lp1916
g3
(g4
g5
Ntp1917
Rp1918
(lp1919
g3
(g9
g5
Ntp1920
Rp1921
(lp1922
I722923
ag3
(g13
g5
Ntp1923
Rp1924
(lp1925
I1405968768
aI235382633
abaS'/two_remote_center_link'
p1926
abag3
(g18
g5
Ntp1927
Rp1928
(lp1929
g3
(g22
g5
Ntp1930
Rp1931
(lp1932
F0.02300066051143672
aF0.021466734611931996
aF-0.10883962121569166
abag3
(g26
g5
Ntp1933
Rp1934
(lp1935
F0.9923528578949037
aF-0.07450375712370406
aF0.05562915994062302
aF-0.0811812303834439
abababag3
(g30
g5
Ntp1936
Rp1937
(lp1938
g3
(g9
g5
Ntp1939
Rp1940
(lp1941
I716402
ag3
(g13
g5
Ntp1942
Rp1943
(lp1944
I1405968768
aI227164255
abag40
aba(lp1945
S'two_outer_yaw_joint'
p1946
aS'two_outer_pitch_joint_1'
p1947
aS'two_outer_insertion_joint'
p1948
aS'two_outer_roll_joint'
p1949
aS'two_outer_wrist_pitch_joint'
p1950
aS'two_outer_wrist_yaw_joint'
p1951
aS'two_outer_wrist_open_angle_joint_1'
p1952
aS'one_outer_yaw_joint'
p1953
aS'one_outer_pitch_joint_1'
p1954
aS'one_outer_insertion_joint'
p1955
aS'one_outer_roll_joint'
p1956
aS'one_outer_wrist_pitch_joint'
p1957
aS'one_outer_wrist_yaw_joint'
p1958
aS'one_outer_wrist_open_angle_joint_1'
p1959
aS'one_outer_pitch_joint_2'
p1960
aS'two_outer_pitch_joint_2'
p1961
aS'one_outer_pitch_joint_3'
p1962
aS'two_outer_pitch_joint_3'
p1963
aS'one_outer_pitch_joint_4'
p1964
aS'two_outer_pitch_joint_4'
p1965
aS'one_outer_pitch_joint_5'
p1966
aS'two_outer_pitch_joint_5'
p1967
aS'one_outer_wrist_open_angle_joint_2'
p1968
aS'two_outer_wrist_open_angle_joint_2'
p1969
aa(F0.22464048863604538
F-0.19280859531092934
F0.10967599212206611
F-4.533120292597605
F0.09084998362093434
F0.05548865443111259
F0.17432048232557812
F-0.5571357779984754
F0.04774826513838348
F0.19289108156667087
F-4.530134020136379
F-0.21744180359226242
F-0.07204163841708634
F-0.2019044775347049
F0.04774826513838348
F-0.19280859531092934
F-0.04774826513838348
F0.19280859531092934
F-0.04774826513838348
F0.19280859531092934
F0.04774826513838348
F-0.19280859531092934
F0.2019044775347049
F-0.17432048232557812
tp1970
a(ta(tabasS'14'
p1971
(lp1972
g3
(g4
g5
Ntp1973
Rp1974
(lp1975
g3
(g9
g5
Ntp1976
Rp1977
(lp1978
I710184
ag3
(g13
g5
Ntp1979
Rp1980
(lp1981
I1405968741
aI985248214
abaS'/two_remote_center_link'
p1982
abag3
(g18
g5
Ntp1983
Rp1984
(lp1985
g3
(g22
g5
Ntp1986
Rp1987
(lp1988
F0.023000928761181365
aF0.021467501390279826
aF-0.10883950042875687
abag3
(g26
g5
Ntp1989
Rp1990
(lp1991
F0.9923464656149058
aF-0.07449985729728975
aF0.05563559546652936
aF-0.08125850085605056
abababag3
(g30
g5
Ntp1992
Rp1993
(lp1994
g3
(g9
g5
Ntp1995
Rp1996
(lp1997
I703652
ag3
(g13
g5
Ntp1998
Rp1999
(lp2000
I1405968741
aI954415634
abag40
aba(lp2001
S'two_outer_yaw_joint'
p2002
aS'two_outer_pitch_joint_1'
p2003
aS'two_outer_insertion_joint'
p2004
aS'two_outer_roll_joint'
p2005
aS'two_outer_wrist_pitch_joint'
p2006
aS'two_outer_wrist_yaw_joint'
p2007
aS'two_outer_wrist_open_angle_joint_1'
p2008
aS'one_outer_yaw_joint'
p2009
aS'one_outer_pitch_joint_1'
p2010
aS'one_outer_insertion_joint'
p2011
aS'one_outer_roll_joint'
p2012
aS'one_outer_wrist_pitch_joint'
p2013
aS'one_outer_wrist_yaw_joint'
p2014
aS'one_outer_wrist_open_angle_joint_1'
p2015
aS'one_outer_pitch_joint_2'
p2016
aS'two_outer_pitch_joint_2'
p2017
aS'one_outer_pitch_joint_3'
p2018
aS'two_outer_pitch_joint_3'
p2019
aS'one_outer_pitch_joint_4'
p2020
aS'two_outer_pitch_joint_4'
p2021
aS'one_outer_pitch_joint_5'
p2022
aS'two_outer_pitch_joint_5'
p2023
aS'one_outer_wrist_open_angle_joint_2'
p2024
aS'two_outer_wrist_open_angle_joint_2'
p2025
aa(F0.22464048863604538
F-0.19280087257805512
F0.10967599212206611
F-4.533120292597605
F0.09084998362093434
F0.05532529695083148
F0.17432048232557817
F-0.5075094965487086
F0.06130938406552172
F0.18422149404667088
F-4.530134020136379
F-0.2308321805692756
F-0.0736195310963431
F-0.20141444533630207
F0.06130938406552172
F-0.19280087257805512
F-0.06130938406552172
F0.19280087257805512
F-0.06130938406552172
F0.19280087257805512
F0.06130938406552172
F-0.19280087257805512
F0.20141444533630207
F-0.17432048232557817
tp2026
a(ta(tabasS'17'
p2027
(lp2028
g3
(g4
g5
Ntp2029
Rp2030
(lp2031
g3
(g9
g5
Ntp2032
Rp2033
(lp2034
I742058
ag3
(g13
g5
Ntp2035
Rp2036
(lp2037
I1405968807
aI707018378
abaS'/two_remote_center_link'
p2038
abag3
(g18
g5
Ntp2039
Rp2040
(lp2041
g3
(g22
g5
Ntp2042
Rp2043
(lp2044
F0.022999893824938687
aF0.021465016633839144
aF-0.10884012206069629
abag3
(g26
g5
Ntp2045
Rp2046
(lp2047
F0.9923535556835699
aF-0.07450535890412886
aF0.055626028671183124
aF-0.08117337587544213
abababag3
(g30
g5
Ntp2048
Rp2049
(lp2050
g3
(g9
g5
Ntp2051
Rp2052
(lp2053
I735537
ag3
(g13
g5
Ntp2054
Rp2055
(lp2056
I1405968807
aI698801564
abag40
aba(lp2057
S'two_outer_yaw_joint'
p2058
aS'two_outer_pitch_joint_1'
p2059
aS'two_outer_insertion_joint'
p2060
aS'two_outer_roll_joint'
p2061
aS'two_outer_wrist_pitch_joint'
p2062
aS'two_outer_wrist_yaw_joint'
p2063
aS'two_outer_wrist_open_angle_joint_1'
p2064
aS'one_outer_yaw_joint'
p2065
aS'one_outer_pitch_joint_1'
p2066
aS'one_outer_insertion_joint'
p2067
aS'one_outer_roll_joint'
p2068
aS'one_outer_wrist_pitch_joint'
p2069
aS'one_outer_wrist_yaw_joint'
p2070
aS'one_outer_wrist_open_angle_joint_1'
p2071
aS'one_outer_pitch_joint_2'
p2072
aS'two_outer_pitch_joint_2'
p2073
aS'one_outer_pitch_joint_3'
p2074
aS'two_outer_pitch_joint_3'
p2075
aS'one_outer_pitch_joint_4'
p2076
aS'two_outer_pitch_joint_4'
p2077
aS'one_outer_pitch_joint_5'
p2078
aS'two_outer_pitch_joint_5'
p2079
aS'one_outer_wrist_open_angle_joint_2'
p2080
aS'two_outer_wrist_open_angle_joint_2'
p2081
aa(F0.22463276590317116
F-0.1927931498451809
F0.10967599212206611
F-4.533120292597605
F0.09084998362093434
F0.05548865443111259
F0.17432048232557812
F-0.17639732456633278
F0.05300744622573039
F0.15076684172667087
F-4.532021229627739
F-0.10785933078037918
F-0.15837668379641548
F-0.20468132665898758
F0.05300744622573039
F-0.1927931498451809
F-0.05300744622573039
F0.1927931498451809
F-0.05300744622573039
F0.1927931498451809
F0.05300744622573039
F-0.1927931498451809
F0.20468132665898758
F-0.17432048232557812
tp2082
a(ta(tabasS'16'
p2083
(lp2084
g3
(g4
g5
Ntp2085
Rp2086
(lp2087
g3
(g9
g5
Ntp2088
Rp2089
(lp2090
I734557
ag3
(g13
g5
Ntp2091
Rp2092
(lp2093
I1405968792
aI241467007
abaS'/two_remote_center_link'
p2094
abag3
(g18
g5
Ntp2095
Rp2096
(lp2097
g3
(g22
g5
Ntp2098
Rp2099
(lp2100
F0.02299993563579206
aF0.02146754749964766
aF-0.10883965766852619
abag3
(g26
g5
Ntp2101
Rp2102
(lp2103
F0.9923497564859661
aF-0.07450179882813697
aF0.05562837075511139
aF-0.08122146970319725
abababag3
(g30
g5
Ntp2104
Rp2105
(lp2106
g3
(g9
g5
Ntp2107
Rp2108
(lp2109
I728024
ag3
(g13
g5
Ntp2110
Rp2111
(lp2112
I1405968792
aI208594616
abag40
aba(lp2113
S'two_outer_yaw_joint'
p2114
aS'two_outer_pitch_joint_1'
p2115
aS'two_outer_insertion_joint'
p2116
aS'two_outer_roll_joint'
p2117
aS'two_outer_wrist_pitch_joint'
p2118
aS'two_outer_wrist_yaw_joint'
p2119
aS'two_outer_wrist_open_angle_joint_1'
p2120
aS'one_outer_yaw_joint'
p2121
aS'one_outer_pitch_joint_1'
p2122
aS'one_outer_insertion_joint'
p2123
aS'one_outer_roll_joint'
p2124
aS'one_outer_wrist_pitch_joint'
p2125
aS'one_outer_wrist_yaw_joint'
p2126
aS'one_outer_wrist_open_angle_joint_1'
p2127
aS'one_outer_pitch_joint_2'
p2128
aS'two_outer_pitch_joint_2'
p2129
aS'one_outer_pitch_joint_3'
p2130
aS'two_outer_pitch_joint_3'
p2131
aS'one_outer_pitch_joint_4'
p2132
aS'two_outer_pitch_joint_4'
p2133
aS'one_outer_pitch_joint_5'
p2134
aS'two_outer_pitch_joint_5'
p2135
aS'one_outer_wrist_open_angle_joint_2'
p2136
aS'two_outer_wrist_open_angle_joint_2'
p2137
aa(F0.22463276590317116
F-0.19280859531092934
F0.10967599212206611
F-4.533120292597605
F0.09084998362093434
F0.05540697569097203
F0.1744838263917124
F-0.09510783833224559
F0.07079290003506944
F0.14703871168667088
F-4.532440609514708
F-0.09159958730829176
F-0.1802116820510487
F-0.20353791819604775
F0.07079290003506944
F-0.19280859531092934
F-0.07079290003506944
F0.19280859531092934
F-0.07079290003506944
F0.19280859531092934
F0.07079290003506944
F-0.19280859531092934
F0.20353791819604775
F-0.1744838263917124
tp2138
a(ta(tabasS'19'
p2139
(lp2140
g3
(g4
g5
Ntp2141
Rp2142
(lp2143
g3
(g9
g5
Ntp2144
Rp2145
(lp2146
I761880
ag3
(g13
g5
Ntp2147
Rp2148
(lp2149
I1405968848
aI563341702
abaS'/two_remote_center_link'
p2150
abag3
(g18
g5
Ntp2151
Rp2152
(lp2153
g3
(g22
g5
Ntp2154
Rp2155
(lp2156
F0.023001574908572534
aF0.021465016633839144
aF-0.10883976680364144
abag3
(g26
g5
Ntp2157
Rp2158
(lp2159
F0.9923531260690173
aF-0.07450473202160865
aF0.05563369235095167
aF-0.08117395125800599
abababag3
(g30
g5
Ntp2160
Rp2161
(lp2162
g3
(g9
g5
Ntp2163
Rp2164
(lp2165
I755356
ag3
(g13
g5
Ntp2166
Rp2167
(lp2168
I1405968848
aI548966640
abag40
aba(lp2169
S'two_outer_yaw_joint'
p2170
aS'two_outer_pitch_joint_1'
p2171
aS'two_outer_insertion_joint'
p2172
aS'two_outer_roll_joint'
p2173
aS'two_outer_wrist_pitch_joint'
p2174
aS'two_outer_wrist_yaw_joint'
p2175
aS'two_outer_wrist_open_angle_joint_1'
p2176
aS'one_outer_yaw_joint'
p2177
aS'one_outer_pitch_joint_1'
p2178
aS'one_outer_insertion_joint'
p2179
aS'one_outer_roll_joint'
p2180
aS'one_outer_wrist_pitch_joint'
p2181
aS'one_outer_wrist_yaw_joint'
p2182
aS'one_outer_wrist_open_angle_joint_1'
p2183
aS'one_outer_pitch_joint_2'
p2184
aS'two_outer_pitch_joint_2'
p2185
aS'one_outer_pitch_joint_3'
p2186
aS'two_outer_pitch_joint_3'
p2187
aS'one_outer_pitch_joint_4'
p2188
aS'two_outer_pitch_joint_4'
p2189
aS'one_outer_pitch_joint_5'
p2190
aS'two_outer_pitch_joint_5'
p2191
aS'one_outer_wrist_open_angle_joint_2'
p2192
aS'two_outer_wrist_open_angle_joint_2'
p2193
aa(F0.2246482113689196
F-0.1927931498451809
F0.10967599212206611
F-4.533120292597605
F0.09084998362093434
F0.05548865443111259
F0.17432048232557812
F-0.3208124293143311
F0.030086375055032033
F0.16079494116667087
F-4.531811539684255
F-0.17563103466403765
F-0.07493423821449652
F-0.2022311656669734
F0.030086375055032033
F-0.1927931498451809
F-0.030086375055032033
F0.1927931498451809
F-0.030086375055032033
F0.1927931498451809
F0.030086375055032033
F-0.1927931498451809
F0.2022311656669734
F-0.17432048232557812
tp2194
a(ta(tabasS'18'
p2195
(lp2196
g3
(g4
g5
Ntp2197
Rp2198
(lp2199
g3
(g9
g5
Ntp2200
Rp2201
(lp2202
I751316
ag3
(g13
g5
Ntp2203
Rp2204
(lp2205
I1405968826
aI768059136
abaS'/two_remote_center_link'
p2206
abag3
(g18
g5
Ntp2207
Rp2208
(lp2209
g3
(g22
g5
Ntp2210
Rp2211
(lp2212
F0.02300173236609717
aF0.021468360376957946
aF-0.10883916117043294
abag3
(g26
g5
Ntp2213
Rp2214
(lp2215
F0.9923460089686243
aF-0.07449889937147489
aF0.05563907694005907
aF-0.08126257191192005
abababag3
(g30
g5
Ntp2216
Rp2217
(lp2218
g3
(g9
g5
Ntp2219
Rp2220
(lp2221
I744791
ag3
(g13
g5
Ntp2222
Rp2223
(lp2224
I1405968826
aI751610521
abag40
aba(lp2225
S'two_outer_yaw_joint'
p2226
aS'two_outer_pitch_joint_1'
p2227
aS'two_outer_insertion_joint'
p2228
aS'two_outer_roll_joint'
p2229
aS'two_outer_wrist_pitch_joint'
p2230
aS'two_outer_wrist_yaw_joint'
p2231
aS'two_outer_wrist_open_angle_joint_1'
p2232
aS'one_outer_yaw_joint'
p2233
aS'one_outer_pitch_joint_1'
p2234
aS'one_outer_insertion_joint'
p2235
aS'one_outer_roll_joint'
p2236
aS'one_outer_wrist_pitch_joint'
p2237
aS'one_outer_wrist_yaw_joint'
p2238
aS'one_outer_wrist_open_angle_joint_1'
p2239
aS'one_outer_pitch_joint_2'
p2240
aS'two_outer_pitch_joint_2'
p2241
aS'one_outer_pitch_joint_3'
p2242
aS'two_outer_pitch_joint_3'
p2243
aS'one_outer_pitch_joint_4'
p2244
aS'two_outer_pitch_joint_4'
p2245
aS'one_outer_pitch_joint_5'
p2246
aS'two_outer_pitch_joint_5'
p2247
aS'one_outer_wrist_open_angle_joint_2'
p2248
aS'two_outer_wrist_open_angle_joint_2'
p2249
aa(F0.2246482113689196
F-0.19280859531092934
F0.10967599212206611
F-4.533120292597605
F0.09084998362093434
F0.055325296950831465
F0.17464717045784667
F-0.2554626637326433
F0.039399990901346826
F0.15474126686667086
F-4.532230919571224
F-0.1431115477198628
F-0.127915611099787
F-0.2041912944605848
F0.039399990901346826
F-0.19280859531092934
F-0.039399990901346826
F0.19280859531092934
F-0.039399990901346826
F0.19280859531092934
F0.039399990901346826
F-0.19280859531092934
F0.2041912944605848
F-0.17464717045784667
tp2250
a(ta(tabasS'31'
p2251
(lp2252
g3
(g4
g5
Ntp2253
Rp2254
(lp2255
g3
(g9
g5
Ntp2256
Rp2257
(lp2258
I910624
ag3
(g13
g5
Ntp2259
Rp2260
(lp2261
I1405969155
aI121688426
abaS'/two_remote_center_link'
p2262
abag3
(g18
g5
Ntp2263
Rp2264
(lp2265
g3
(g22
g5
Ntp2266
Rp2267
(lp2268
F0.022996144017539417
aF0.021472217560190937
aF-0.10883932904180425
abag3
(g26
g5
Ntp2269
Rp2270
(lp2271
F0.9923419818054099
aF-0.07447217756530844
aF0.05551181484678063
aF-0.08142311912233324
abababag3
(g30
g5
Ntp2272
Rp2273
(lp2274
g3
(g9
g5
Ntp2275
Rp2276
(lp2277
I904101
ag3
(g13
g5
Ntp2278
Rp2279
(lp2280
I1405969155
aI109180861
abag40
aba(lp2281
S'two_outer_yaw_joint'
p2282
aS'two_outer_pitch_joint_1'
p2283
aS'two_outer_insertion_joint'
p2284
aS'two_outer_roll_joint'
p2285
aS'two_outer_wrist_pitch_joint'
p2286
aS'two_outer_wrist_yaw_joint'
p2287
aS'two_outer_wrist_open_angle_joint_1'
p2288
aS'one_outer_yaw_joint'
p2289
aS'one_outer_pitch_joint_1'
p2290
aS'one_outer_insertion_joint'
p2291
aS'one_outer_roll_joint'
p2292
aS'one_outer_wrist_pitch_joint'
p2293
aS'one_outer_wrist_yaw_joint'
p2294
aS'one_outer_wrist_open_angle_joint_1'
p2295
aS'one_outer_pitch_joint_2'
p2296
aS'two_outer_pitch_joint_2'
p2297
aS'one_outer_pitch_joint_3'
p2298
aS'two_outer_pitch_joint_3'
p2299
aS'one_outer_pitch_joint_4'
p2300
aS'two_outer_pitch_joint_4'
p2301
aS'one_outer_pitch_joint_5'
p2302
aS'two_outer_pitch_joint_5'
p2303
aS'one_outer_wrist_open_angle_joint_2'
p2304
aS'two_outer_wrist_open_angle_joint_2'
p2305
aa(F0.22464048863604538
F-0.19280859531092934
F0.10967599212206611
F-4.533120292597605
F0.09112325662046523
F0.05502078240329805
F0.17481051452398094
F-0.5413968484008058
F-0.09044231691298987
F0.18993424407667087
F-4.529085570418956
F-0.2718231304989077
F0.15330277540557524
F-0.2022311656669735
F-0.09044231691298987
F-0.19280859531092934
F0.09044231691298987
F0.19280859531092934
F0.09044231691298987
F0.19280859531092934
F-0.09044231691298987
F-0.19280859531092934
F0.2022311656669735
F-0.17481051452398094
tp2306
a(ta(tabasS'30'
p2307
(lp2308
g3
(g4
g5
Ntp2309
Rp2310
(lp2311
g3
(g9
g5
Ntp2312
Rp2313
(lp2314
I900767
ag3
(g13
g5
Ntp2315
Rp2316
(lp2317
I1405969134
aI817044034
abaS'/two_remote_center_link'
p2318
abag3
(g18
g5
Ntp2319
Rp2320
(lp2321
g3
(g22
g5
Ntp2322
Rp2323
(lp2324
F0.022995912786150315
aF0.021470591868893305
aF-0.10883961194915978
abag3
(g26
g5
Ntp2325
Rp2326
(lp2327
F0.9923486290330273
aF-0.07447671145198556
aF0.055505731867977096
aF-0.08134206560795705
abababag3
(g30
g5
Ntp2328
Rp2329
(lp2330
g3
(g9
g5
Ntp2331
Rp2332
(lp2333
I894232
ag3
(g13
g5
Ntp2334
Rp2335
(lp2336
I1405969134
aI780052207
abag40
aba(lp2337
S'two_outer_yaw_joint'
p2338
aS'two_outer_pitch_joint_1'
p2339
aS'two_outer_insertion_joint'
p2340
aS'two_outer_roll_joint'
p2341
aS'two_outer_wrist_pitch_joint'
p2342
aS'two_outer_wrist_yaw_joint'
p2343
aS'two_outer_wrist_open_angle_joint_1'
p2344
aS'one_outer_yaw_joint'
p2345
aS'one_outer_pitch_joint_1'
p2346
aS'one_outer_insertion_joint'
p2347
aS'one_outer_roll_joint'
p2348
aS'one_outer_wrist_pitch_joint'
p2349
aS'one_outer_wrist_yaw_joint'
p2350
aS'one_outer_wrist_open_angle_joint_1'
p2351
aS'one_outer_pitch_joint_2'
p2352
aS'two_outer_pitch_joint_2'
p2353
aS'one_outer_pitch_joint_3'
p2354
aS'two_outer_pitch_joint_3'
p2355
aS'one_outer_pitch_joint_4'
p2356
aS'two_outer_pitch_joint_4'
p2357
aS'one_outer_pitch_joint_5'
p2358
aS'two_outer_pitch_joint_5'
p2359
aS'one_outer_wrist_open_angle_joint_2'
p2360
aS'two_outer_wrist_open_angle_joint_2'
p2361
aa(F0.22464048863604538
F-0.19280859531092934
F0.10967599212206611
F-4.533120292597605
F0.09112325662046523
F0.05518413988357919
F0.1741571382594439
F-0.4868048497129127
F-0.07809366704710488
F0.18121928640667084
F-4.531811539684255
F-0.1176971587634909
F-0.014277813656096497
F-0.20239450973310774
F-0.07809366704710488
F-0.19280859531092934
F0.07809366704710488
F0.19280859531092934
F0.07809366704710488
F0.19280859531092934
F-0.07809366704710488
F-0.19280859531092934
F0.20239450973310774
F-0.1741571382594439
tp2362
a(ta(tabasS'37'
p2363
(lp2364
g3
(g4
g5
Ntp2365
Rp2366
(lp2367
g3
(g9
g5
Ntp2368
Rp2369
(lp2370
I1223380
ag3
(g13
g5
Ntp2371
Rp2372
(lp2373
I1405969799
aI46014527
abaS'/two_remote_center_link'
p2374
abag3
(g18
g5
Ntp2375
Rp2376
(lp2377
g3
(g22
g5
Ntp2378
Rp2379
(lp2380
F0.022994189936035955
aF0.021468061044258014
aF-0.10884043173726421
abag3
(g26
g5
Ntp2381
Rp2382
(lp2383
F0.9923528627096471
aF-0.07448089530872105
aF0.055495727156566824
aF-0.0812933968618837
abababag3
(g30
g5
Ntp2384
Rp2385
(lp2386
g3
(g9
g5
Ntp2387
Rp2388
(lp2389
I1216860
ag3
(g13
g5
Ntp2390
Rp2391
(lp2392
I1405969799
aI39847986
abag40
aba(lp2393
S'two_outer_yaw_joint'
p2394
aS'two_outer_pitch_joint_1'
p2395
aS'two_outer_insertion_joint'
p2396
aS'two_outer_roll_joint'
p2397
aS'two_outer_wrist_pitch_joint'
p2398
aS'two_outer_wrist_yaw_joint'
p2399
aS'two_outer_wrist_open_angle_joint_1'
p2400
aS'one_outer_yaw_joint'
p2401
aS'one_outer_pitch_joint_1'
p2402
aS'one_outer_insertion_joint'
p2403
aS'one_outer_roll_joint'
p2404
aS'one_outer_wrist_pitch_joint'
p2405
aS'one_outer_wrist_yaw_joint'
p2406
aS'one_outer_wrist_open_angle_joint_1'
p2407
aS'one_outer_pitch_joint_2'
p2408
aS'two_outer_pitch_joint_2'
p2409
aS'one_outer_pitch_joint_3'
p2410
aS'two_outer_pitch_joint_3'
p2411
aS'one_outer_pitch_joint_4'
p2412
aS'two_outer_pitch_joint_4'
p2413
aS'one_outer_pitch_joint_5'
p2414
aS'two_outer_pitch_joint_5'
p2415
aS'one_outer_wrist_open_angle_joint_2'
p2416
aS'two_outer_wrist_open_angle_joint_2'
p2417
aa(F0.22462504317029694
F-0.1927931498451809
F0.10967599212206611
F-4.533120292597605
F0.09112325662046523
F0.05526581862371975
F0.17464717045784672
F-0.4262663467118668
F-0.137744055767615
F0.17216210817667088
F-4.5307630899668325
F-0.1636070226846789
F0.059015568907607924
F-0.2045179825928534
F-0.137744055767615
F-0.1927931498451809
F0.137744055767615
F0.1927931498451809
F0.137744055767615
F0.1927931498451809
F-0.137744055767615
F-0.1927931498451809
F0.2045179825928534
F-0.17464717045784672
tp2418
a(ta(tabasS'36'
p2419
(lp2420
g3
(g4
g5
Ntp2421
Rp2422
(lp2423
g3
(g9
g5
Ntp2424
Rp2425
(lp2426
I1216037
ag3
(g13
g5
Ntp2427
Rp2428
(lp2429
I1405969783
aI904695379
abaS'/two_remote_center_link'
p2430
abag3
(g18
g5
Ntp2431
Rp2432
(lp2433
g3
(g22
g5
Ntp2434
Rp2435
(lp2436
F0.02299407429456085
aF0.021467248170824734
aF-0.108840573010094
abag3
(g26
g5
Ntp2437
Rp2438
(lp2439
F0.992356181853215
aF-0.07448316165714747
aF0.05549268535744162
aF-0.08125286972830176
abababag3
(g30
g5
Ntp2440
Rp2441
(lp2442
g3
(g9
g5
Ntp2443
Rp2444
(lp2445
I1209514
ag3
(g13
g5
Ntp2446
Rp2447
(lp2448
I1405969783
aI892399238
abag40
aba(lp2449
S'two_outer_yaw_joint'
p2450
aS'two_outer_pitch_joint_1'
p2451
aS'two_outer_insertion_joint'
p2452
aS'two_outer_roll_joint'
p2453
aS'two_outer_wrist_pitch_joint'
p2454
aS'two_outer_wrist_yaw_joint'
p2455
aS'two_outer_wrist_open_angle_joint_1'
p2456
aS'one_outer_yaw_joint'
p2457
aS'one_outer_pitch_joint_1'
p2458
aS'one_outer_insertion_joint'
p2459
aS'one_outer_roll_joint'
p2460
aS'one_outer_wrist_pitch_joint'
p2461
aS'one_outer_wrist_yaw_joint'
p2462
aS'one_outer_wrist_open_angle_joint_1'
p2463
aS'one_outer_pitch_joint_2'
p2464
aS'two_outer_pitch_joint_2'
p2465
aS'one_outer_pitch_joint_3'
p2466
aS'two_outer_pitch_joint_3'
p2467
aS'one_outer_pitch_joint_4'
p2468
aS'two_outer_pitch_joint_4'
p2469
aS'one_outer_pitch_joint_5'
p2470
aS'two_outer_pitch_joint_5'
p2471
aS'one_outer_wrist_open_angle_joint_2'
p2472
aS'two_outer_wrist_open_angle_joint_2'
p2473
aa(F0.22463276590317116
F-0.1927931498451809
F0.10967599212206611
F-4.533120292597605
F0.09112325662046523
F0.055347497363860326
F0.174810514523981
F-0.3657123982450724
F-0.1362612910557639
F0.16561195480667087
F-4.53160184974077
F-0.08244494182400726
F-0.005369733604973989
F-0.20419129446058473
F-0.1362612910557639
F-0.1927931498451809
F0.1362612910557639
F0.1927931498451809
F0.1362612910557639
F0.1927931498451809
F-0.1362612910557639
F-0.1927931498451809
F0.20419129446058473
F-0.174810514523981
tp2474
a(ta(tabasS'35'
p2475
(lp2476
g3
(g4
g5
Ntp2477
Rp2478
(lp2479
g3
(g9
g5
Ntp2480
Rp2481
(lp2482
I1205896
ag3
(g13
g5
Ntp2483
Rp2484
(lp2485
I1405969763
aI33490665
abaS'/two_remote_center_link'
p2486
abag3
(g18
g5
Ntp2487
Rp2488
(lp2489
g3
(g22
g5
Ntp2490
Rp2491
(lp2492
F0.022994189936035955
aF0.021468061044258014
aF-0.10884043173726421
abag3
(g26
g5
Ntp2493
Rp2494
(lp2495
F0.9923528627096471
aF-0.07448089530872105
aF0.055495727156566824
aF-0.0812933968618837
abababag3
(g30
g5
Ntp2496
Rp2497
(lp2498
g3
(g9
g5
Ntp2499
Rp2500
(lp2501
I1199369
ag3
(g13
g5
Ntp2502
Rp2503
(lp2504
I1405969763
aI12222433
abag40
aba(lp2505
S'two_outer_yaw_joint'
p2506
aS'two_outer_pitch_joint_1'
p2507
aS'two_outer_insertion_joint'
p2508
aS'two_outer_roll_joint'
p2509
aS'two_outer_wrist_pitch_joint'
p2510
aS'two_outer_wrist_yaw_joint'
p2511
aS'two_outer_wrist_open_angle_joint_1'
p2512
aS'one_outer_yaw_joint'
p2513
aS'one_outer_pitch_joint_1'
p2514
aS'one_outer_insertion_joint'
p2515
aS'one_outer_roll_joint'
p2516
aS'one_outer_wrist_pitch_joint'
p2517
aS'one_outer_wrist_yaw_joint'
p2518
aS'one_outer_wrist_open_angle_joint_1'
p2519
aS'one_outer_pitch_joint_2'
p2520
aS'two_outer_pitch_joint_2'
p2521
aS'one_outer_pitch_joint_3'
p2522
aS'two_outer_pitch_joint_3'
p2523
aS'one_outer_pitch_joint_4'
p2524
aS'two_outer_pitch_joint_4'
p2525
aS'one_outer_pitch_joint_5'
p2526
aS'two_outer_pitch_joint_5'
p2527
aS'one_outer_wrist_open_angle_joint_2'
p2528
aS'two_outer_wrist_open_angle_joint_2'
p2529
aa(F0.22462504317029694
F-0.1927931498451809
F0.10967599212206611
F-4.533120292597605
F0.09112325662046523
F0.05526581862371974
F0.17432048232557812
F-0.2927171271179024
F-0.12838410352405488
F0.15981364963667086
F-4.53160184974077
F-0.10184732479069981
F0.003508915807969998
F-0.20500801479125624
F-0.12838410352405488
F-0.1927931498451809
F0.12838410352405488
F0.1927931498451809
F0.12838410352405488
F0.1927931498451809
F-0.12838410352405488
F-0.1927931498451809
F0.20500801479125624
F-0.17432048232557812
tp2530
a(ta(tabasS'34'
p2531
(lp2532
g3
(g4
g5
Ntp2533
Rp2534
(lp2535
g3
(g9
g5
Ntp2536
Rp2537
(lp2538
I1193484
ag3
(g13
g5
Ntp2539
Rp2540
(lp2541
I1405969737
aI431941452
abaS'/two_remote_center_link'
p2542
abag3
(g18
g5
Ntp2543
Rp2544
(lp2545
g3
(g22
g5
Ntp2546
Rp2547
(lp2548
F0.02299407429456085
aF0.021467248170824734
aF-0.108840573010094
abag3
(g26
g5
Ntp2549
Rp2550
(lp2551
F0.992356181853215
aF-0.07448316165714747
aF0.05549268535744162
aF-0.08125286972830176
abababag3
(g30
g5
Ntp2552
Rp2553
(lp2554
g3
(g9
g5
Ntp2555
Rp2556
(lp2557
I1186949
ag3
(g13
g5
Ntp2558
Rp2559
(lp2560
I1405969737
aI394955877
abag40
aba(lp2561
S'two_outer_yaw_joint'
p2562
aS'two_outer_pitch_joint_1'
p2563
aS'two_outer_insertion_joint'
p2564
aS'two_outer_roll_joint'
p2565
aS'two_outer_wrist_pitch_joint'
p2566
aS'two_outer_wrist_yaw_joint'
p2567
aS'two_outer_wrist_open_angle_joint_1'
p2568
aS'one_outer_yaw_joint'
p2569
aS'one_outer_pitch_joint_1'
p2570
aS'one_outer_insertion_joint'
p2571
aS'one_outer_roll_joint'
p2572
aS'one_outer_wrist_pitch_joint'
p2573
aS'one_outer_wrist_yaw_joint'
p2574
aS'one_outer_wrist_open_angle_joint_1'
p2575
aS'one_outer_pitch_joint_2'
p2576
aS'two_outer_pitch_joint_2'
p2577
aS'one_outer_pitch_joint_3'
p2578
aS'two_outer_pitch_joint_3'
p2579
aS'one_outer_pitch_joint_4'
p2580
aS'two_outer_pitch_joint_4'
p2581
aS'one_outer_pitch_joint_5'
p2582
aS'two_outer_pitch_joint_5'
p2583
aS'one_outer_wrist_open_angle_joint_2'
p2584
aS'two_outer_wrist_open_angle_joint_2'
p2585
aa(F0.22462504317029694
F-0.1927931498451809
F0.10967599212206611
F-4.533120292597605
F0.09112325662046523
F0.05534749736386031
F0.17448382639171245
F-0.2242937138522732
F-0.12152631673174352
F0.15418645474667084
F-4.532230919571224
F-0.052658184875141255
F-0.083566805103565
F-0.20582473512192762
F-0.12152631673174352
F-0.1927931498451809
F0.12152631673174352
F0.1927931498451809
F0.12152631673174352
F0.1927931498451809
F-0.12152631673174352
F-0.1927931498451809
F0.20582473512192762
F-0.17448382639171245
tp2586
a(ta(tabasS'33'
p2587
(lp2588
g3
(g4
g5
Ntp2589
Rp2590
(lp2591
g3
(g9
g5
Ntp2592
Rp2593
(lp2594
I1183918
ag3
(g13
g5
Ntp2595
Rp2596
(lp2597
I1405969717
aI729723470
abaS'/two_remote_center_link'
p2598
abag3
(g18
g5
Ntp2599
Rp2600
(lp2601
g3
(g22
g5
Ntp2602
Rp2603
(lp2604
F0.022995755385160473
aF0.021467248170824734
aF-0.10884021784292444
abag3
(g26
g5
Ntp2605
Rp2606
(lp2607
F0.9923557532684371
aF-0.07448253416071819
aF0.05550034905749526
aF-0.08125344493943988
abababag3
(g30
g5
Ntp2608
Rp2609
(lp2610
g3
(g9
g5
Ntp2611
Rp2612
(lp2613
I1177386
ag3
(g13
g5
Ntp2614
Rp2615
(lp2616
I1405969717
aI698903814
abag40
aba(lp2617
S'two_outer_yaw_joint'
p2618
aS'two_outer_pitch_joint_1'
p2619
aS'two_outer_insertion_joint'
p2620
aS'two_outer_roll_joint'
p2621
aS'two_outer_wrist_pitch_joint'
p2622
aS'two_outer_wrist_yaw_joint'
p2623
aS'two_outer_wrist_open_angle_joint_1'
p2624
aS'one_outer_yaw_joint'
p2625
aS'one_outer_pitch_joint_1'
p2626
aS'one_outer_insertion_joint'
p2627
aS'one_outer_roll_joint'
p2628
aS'one_outer_wrist_pitch_joint'
p2629
aS'one_outer_wrist_yaw_joint'
p2630
aS'one_outer_wrist_open_angle_joint_1'
p2631
aS'one_outer_pitch_joint_2'
p2632
aS'two_outer_pitch_joint_2'
p2633
aS'one_outer_pitch_joint_3'
p2634
aS'two_outer_pitch_joint_3'
p2635
aS'one_outer_pitch_joint_4'
p2636
aS'two_outer_pitch_joint_4'
p2637
aS'one_outer_pitch_joint_5'
p2638
aS'two_outer_pitch_joint_5'
p2639
aS'one_outer_wrist_open_angle_joint_2'
p2640
aS'two_outer_wrist_open_angle_joint_2'
p2641
aa(F0.22464048863604538
F-0.1927931498451809
F0.10967599212206611
F-4.533120292597605
F0.09112325662046523
F0.05534749736386031
F0.17448382639171245
F-0.15190853862216686
F-0.1154408032268546
F0.14842833456667084
F-4.532230919571224
F-0.059763282862944155
F-0.07858986151275667
F-0.2064781113864647
F-0.1154408032268546
F-0.1927931498451809
F0.1154408032268546
F0.1927931498451809
F0.1154408032268546
F0.1927931498451809
F-0.1154408032268546
F-0.1927931498451809
F0.2064781113864647
F-0.17448382639171245
tp2642
a(ta(tabasS'32'
p2643
(lp2644
g3
(g4
g5
Ntp2645
Rp2646
(lp2647
g3
(g9
g5
Ntp2648
Rp2649
(lp2650
I1170730
ag3
(g13
g5
Ntp2651
Rp2652
(lp2653
I1405969690
aI556059616
abaS'/two_remote_center_link'
p2654
abag3
(g18
g5
Ntp2655
Rp2656
(lp2657
g3
(g22
g5
Ntp2658
Rp2659
(lp2660
F0.0229941481473402
aF0.021465530200624867
aF-0.10884089623869055
abag3
(g26
g5
Ntp2661
Rp2662
(lp2663
F0.9923566654276037
aF-0.07448445091319104
aF0.05549338588902059
aF-0.08124530310202466
abababag3
(g30
g5
Ntp2664
Rp2665
(lp2666
g3
(g9
g5
Ntp2667
Rp2668
(lp2669
I1164205
ag3
(g13
g5
Ntp2670
Rp2671
(lp2672
I1405969690
aI539619877
abag40
aba(lp2673
S'two_outer_yaw_joint'
p2674
aS'two_outer_pitch_joint_1'
p2675
aS'two_outer_insertion_joint'
p2676
aS'two_outer_roll_joint'
p2677
aS'two_outer_wrist_pitch_joint'
p2678
aS'two_outer_wrist_yaw_joint'
p2679
aS'two_outer_wrist_open_angle_joint_1'
p2680
aS'one_outer_yaw_joint'
p2681
aS'one_outer_pitch_joint_1'
p2682
aS'one_outer_insertion_joint'
p2683
aS'one_outer_roll_joint'
p2684
aS'one_outer_wrist_pitch_joint'
p2685
aS'one_outer_wrist_yaw_joint'
p2686
aS'one_outer_wrist_open_angle_joint_1'
p2687
aS'one_outer_pitch_joint_2'
p2688
aS'two_outer_pitch_joint_2'
p2689
aS'one_outer_pitch_joint_3'
p2690
aS'two_outer_pitch_joint_3'
p2691
aS'one_outer_pitch_joint_4'
p2692
aS'two_outer_pitch_joint_4'
p2693
aS'one_outer_pitch_joint_5'
p2694
aS'two_outer_pitch_joint_5'
p2695
aS'one_outer_wrist_open_angle_joint_2'
p2696
aS'two_outer_wrist_open_angle_joint_2'
p2697
aa(F0.22462504317029694
F-0.19277770437943245
F0.10967599212206611
F-4.533120292597605
F0.09112325662046523
F0.05534749736386031
F0.17448382639171245
F-0.07325250429819023
F-0.10516184577126178
F0.14502686960667086
F-4.532230919571224
F-0.0791656658296367
F-0.06415705777025438
F-0.20566139105579337
F-0.10516184577126178
F-0.19277770437943245
F0.10516184577126178
F0.19277770437943245
F0.10516184577126178
F0.19277770437943245
F-0.10516184577126178
F-0.19277770437943245
F0.20566139105579337
F-0.17448382639171245
tp2698
a(ta(tabas.