(dp0
S'42'
p1
(lp2
ccopy_reg
_reconstructor
p3
(cgeometry_msgs.msg._PoseStamped
PoseStamped
p4
c__builtin__
object
p5
Ntp6
Rp7
(lp8
g3
(cstd_msgs.msg._Header
Header
p9
g5
Ntp10
Rp11
(lp12
I4529572
ag3
(cgenpy.rostime
Time
p13
g5
Ntp14
Rp15
(lp16
I1405641528
aI629506366
abaS'/two_remote_center_link'
p17
abag3
(cgeometry_msgs.msg._Pose
Pose
p18
g5
Ntp19
Rp20
(lp21
g3
(cgeometry_msgs.msg._Point
Point
p22
g5
Ntp23
Rp24
(lp25
F0.12321131430004889
aF0.03164657023042059
aF-0.14461101276111288
abag3
(cgeometry_msgs.msg._Quaternion
Quaternion
p26
g5
Ntp27
Rp28
(lp29
F0.893265828312152
aF-0.3642409635413957
aF0.17552484206928287
aF-0.19645790965190021
abababag3
(csensor_msgs.msg._JointState
JointState
p30
g5
Ntp31
Rp32
(lp33
g3
(g9
g5
Ntp34
Rp35
(lp36
I4523086
ag3
(g13
g5
Ntp37
Rp38
(lp39
I1405641528
aI592524148
abaS''
p40
aba(lp41
S'two_outer_yaw_joint'
p42
aS'two_outer_pitch_joint_1'
p43
aS'two_outer_insertion_joint'
p44
aS'two_outer_roll_joint'
p45
aS'two_outer_wrist_pitch_joint'
p46
aS'two_outer_wrist_yaw_joint'
p47
aS'two_outer_wrist_open_angle_joint_1'
p48
aS'one_outer_yaw_joint'
p49
aS'one_outer_pitch_joint_1'
p50
aS'one_outer_insertion_joint'
p51
aS'one_outer_roll_joint'
p52
aS'one_outer_wrist_pitch_joint'
p53
aS'one_outer_wrist_yaw_joint'
p54
aS'one_outer_wrist_open_angle_joint_1'
p55
aS'one_outer_pitch_joint_2'
p56
aS'two_outer_pitch_joint_2'
p57
aS'one_outer_pitch_joint_3'
p58
aS'two_outer_pitch_joint_3'
p59
aS'one_outer_pitch_joint_4'
p60
aS'two_outer_pitch_joint_4'
p61
aS'one_outer_pitch_joint_5'
p62
aS'two_outer_pitch_joint_5'
p63
aS'one_outer_wrist_open_angle_joint_2'
p64
aS'two_outer_wrist_open_angle_joint_2'
p65
aa(F0.7240939675256344
F-0.15359005605882853
F0.1893472184598619
F-3.8236557795750263
F0.20576722103902248
F0.13006990414743955
F-0.17119424452635046
F-0.046395369347556635
F-0.3001677721607183
F0.11386284626020303
F-4.5347229946252545
F0.10377033199300477
F0.09221025987035675
F0.17446990465689632
F-0.3001677721607183
F-0.15359005605882853
F0.3001677721607183
F0.15359005605882853
F0.3001677721607183
F0.15359005605882853
F-0.3001677721607183
F-0.15359005605882853
F-0.17446990465689632
F0.17119424452635046
tp66
a(ta(tabasS'43'
p67
(lp68
g3
(g4
g5
Ntp69
Rp70
(lp71
g3
(g9
g5
Ntp72
Rp73
(lp74
I4540092
ag3
(g13
g5
Ntp75
Rp76
(lp77
I1405641550
aI349838451
abaS'/two_remote_center_link'
p78
abag3
(g18
g5
Ntp79
Rp80
(lp81
g3
(g22
g5
Ntp82
Rp83
(lp84
F0.11054280926554047
aF0.032355067161507246
aF-0.14279006734036023
abag3
(g26
g5
Ntp85
Rp86
(lp87
F0.928822405747505
aF-0.25373864147210584
aF0.1607846693192343
aF-0.21691917968960714
abababag3
(g30
g5
Ntp88
Rp89
(lp90
g3
(g9
g5
Ntp91
Rp92
(lp93
I4533619
ag3
(g13
g5
Ntp94
Rp95
(lp96
I1405641550
aI339564155
abag40
aba(lp97
S'two_outer_yaw_joint'
p98
aS'two_outer_pitch_joint_1'
p99
aS'two_outer_insertion_joint'
p100
aS'two_outer_roll_joint'
p101
aS'two_outer_wrist_pitch_joint'
p102
aS'two_outer_wrist_yaw_joint'
p103
aS'two_outer_wrist_open_angle_joint_1'
p104
aS'one_outer_yaw_joint'
p105
aS'one_outer_pitch_joint_1'
p106
aS'one_outer_insertion_joint'
p107
aS'one_outer_roll_joint'
p108
aS'one_outer_wrist_pitch_joint'
p109
aS'one_outer_wrist_yaw_joint'
p110
aS'one_outer_wrist_open_angle_joint_1'
p111
aS'one_outer_pitch_joint_2'
p112
aS'two_outer_pitch_joint_2'
p113
aS'one_outer_pitch_joint_3'
p114
aS'two_outer_pitch_joint_3'
p115
aS'one_outer_pitch_joint_4'
p116
aS'two_outer_pitch_joint_4'
p117
aS'one_outer_pitch_joint_5'
p118
aS'two_outer_pitch_joint_5'
p119
aS'one_outer_wrist_open_angle_joint_2'
p120
aS'two_outer_wrist_open_angle_joint_2'
p121
aa(F0.6823912100048221
F-0.15922765105701242
F0.1804468913198619
F-4.046556189499076
F0.283786662405089
F0.00208743390601987
F0.1522270064195225
F-0.046395369347556635
F-0.30015232669496983
F0.11386284626020303
F-4.5347229946252545
F0.10377033199300477
F0.09221025987035675
F0.17446990465689632
F-0.30015232669496983
F-0.15922765105701242
F0.30015232669496983
F0.15922765105701242
F0.30015232669496983
F0.15922765105701242
F-0.30015232669496983
F-0.15922765105701242
F-0.17446990465689632
F-0.1522270064195225
tp122
a(ta(tabasS'24'
p123
(lp124
g3
(g4
g5
Ntp125
Rp126
(lp127
g3
(g9
g5
Ntp128
Rp129
(lp130
I4239556
ag3
(g13
g5
Ntp131
Rp132
(lp133
I1405640929
aI592210473
abaS'/two_remote_center_link'
p134
abag3
(g18
g5
Ntp135
Rp136
(lp137
g3
(g22
g5
Ntp138
Rp139
(lp140
F0.15135548090490442
aF0.009827740464428083
aF-0.14528042449907963
abag3
(g26
g5
Ntp141
Rp142
(lp143
F0.8054647350022253
aF-0.5130728849730528
aF0.1890330901110385
aF-0.2285809839341314
abababag3
(g30
g5
Ntp144
Rp145
(lp146
g3
(g9
g5
Ntp147
Rp148
(lp149
I4233070
ag3
(g13
g5
Ntp150
Rp151
(lp152
I1405640929
aI555222428
abag40
aba(lp153
S'two_outer_yaw_joint'
p154
aS'two_outer_pitch_joint_1'
p155
aS'two_outer_insertion_joint'
p156
aS'two_outer_roll_joint'
p157
aS'two_outer_wrist_pitch_joint'
p158
aS'two_outer_wrist_yaw_joint'
p159
aS'two_outer_wrist_open_angle_joint_1'
p160
aS'one_outer_yaw_joint'
p161
aS'one_outer_pitch_joint_1'
p162
aS'one_outer_insertion_joint'
p163
aS'one_outer_roll_joint'
p164
aS'one_outer_wrist_pitch_joint'
p165
aS'one_outer_wrist_yaw_joint'
p166
aS'one_outer_wrist_open_angle_joint_1'
p167
aS'one_outer_pitch_joint_2'
p168
aS'two_outer_pitch_joint_2'
p169
aS'one_outer_pitch_joint_3'
p170
aS'two_outer_pitch_joint_3'
p171
aS'one_outer_pitch_joint_4'
p172
aS'two_outer_pitch_joint_4'
p173
aS'one_outer_pitch_joint_5'
p174
aS'two_outer_pitch_joint_5'
p175
aS'one_outer_wrist_open_angle_joint_2'
p176
aS'two_outer_wrist_open_angle_joint_2'
p177
aa(F0.8204582283302079
F-0.03087583068740106
F0.20689379989986192
F-3.4814417918082827
F0.21984078051486283
F0.17438043958271213
F-0.29386563819319417
F-0.046379923881808185
F-0.3001600494278441
F0.11386284626020303
F-4.5347229946252545
F0.1039069684927702
F0.09218052070680088
F0.17430656059076205
F-0.3001600494278441
F-0.03087583068740106
F0.3001600494278441
F0.03087583068740106
F0.3001600494278441
F0.03087583068740106
F-0.3001600494278441
F-0.03087583068740106
F-0.17430656059076205
F0.29386563819319417
tp178
a(ta(tabasS'25'
p179
(lp180
g3
(g4
g5
Ntp181
Rp182
(lp183
g3
(g9
g5
Ntp184
Rp185
(lp186
I4251500
ag3
(g13
g5
Ntp187
Rp188
(lp189
I1405640954
aI265025477
abaS'/two_remote_center_link'
p190
abag3
(g18
g5
Ntp191
Rp192
(lp193
g3
(g22
g5
Ntp194
Rp195
(lp196
F0.13895473894921348
aF0.007763756300021402
aF-0.14488075928953018
abag3
(g26
g5
Ntp197
Rp198
(lp199
F0.8078166111321243
aF-0.5304301960863909
aF0.17199005855188412
aF-0.19103808420857504
abababag3
(g30
g5
Ntp200
Rp201
(lp202
g3
(g9
g5
Ntp203
Rp204
(lp205
I4245027
ag3
(g13
g5
Ntp206
Rp207
(lp208
I1405640954
aI254743220
abag40
aba(lp209
S'two_outer_yaw_joint'
p210
aS'two_outer_pitch_joint_1'
p211
aS'two_outer_insertion_joint'
p212
aS'two_outer_roll_joint'
p213
aS'two_outer_wrist_pitch_joint'
p214
aS'two_outer_wrist_yaw_joint'
p215
aS'two_outer_wrist_open_angle_joint_1'
p216
aS'one_outer_yaw_joint'
p217
aS'one_outer_pitch_joint_1'
p218
aS'one_outer_insertion_joint'
p219
aS'one_outer_roll_joint'
p220
aS'one_outer_wrist_pitch_joint'
p221
aS'one_outer_wrist_yaw_joint'
p222
aS'one_outer_wrist_open_angle_joint_1'
p223
aS'one_outer_pitch_joint_2'
p224
aS'two_outer_pitch_joint_2'
p225
aS'one_outer_pitch_joint_3'
p226
aS'two_outer_pitch_joint_3'
p227
aS'one_outer_pitch_joint_4'
p228
aS'two_outer_pitch_joint_4'
p229
aS'one_outer_pitch_joint_5'
p230
aS'two_outer_pitch_joint_5'
p231
aS'one_outer_wrist_open_angle_joint_2'
p232
aS'two_outer_wrist_open_angle_joint_2'
p233
aa(F0.7810336770072918
F-0.025377244880953213
F0.19774847394986192
F-3.475151093503747
F0.19046393306529313
F0.22332898336045473
F-0.2847183704896745
F-0.046379923881808185
F-0.3001600494278441
F0.11386284626020303
F-4.5347229946252545
F0.10377033199300477
F0.09212858113021619
F0.17495993685529915
F-0.3001600494278441
F-0.025377244880953213
F0.3001600494278441
F0.025377244880953213
F0.3001600494278441
F0.025377244880953213
F-0.3001600494278441
F-0.025377244880953213
F-0.17495993685529915
F0.2847183704896745
tp234
a(ta(tabasS'26'
p235
(lp236
g3
(g4
g5
Ntp237
Rp238
(lp239
g3
(g9
g5
Ntp240
Rp241
(lp242
I4262779
ag3
(g13
g5
Ntp243
Rp244
(lp245
I1405640977
aI572462659
abaS'/two_remote_center_link'
p246
abag3
(g18
g5
Ntp247
Rp248
(lp249
g3
(g22
g5
Ntp250
Rp251
(lp252
F0.12628385116655885
aF0.00695653208939446
aF-0.14501207618910675
abag3
(g26
g5
Ntp253
Rp254
(lp255
F0.8246418955620021
aF-0.5169147496079272
aF0.15812464058106962
aF-0.1666177774512362
abababag3
(g30
g5
Ntp256
Rp257
(lp258
g3
(g9
g5
Ntp259
Rp260
(lp261
I4256301
ag3
(g13
g5
Ntp262
Rp263
(lp264
I1405640977
aI551921220
abag40
aba(lp265
S'two_outer_yaw_joint'
p266
aS'two_outer_pitch_joint_1'
p267
aS'two_outer_insertion_joint'
p268
aS'two_outer_roll_joint'
p269
aS'two_outer_wrist_pitch_joint'
p270
aS'two_outer_wrist_yaw_joint'
p271
aS'two_outer_wrist_open_angle_joint_1'
p272
aS'one_outer_yaw_joint'
p273
aS'one_outer_pitch_joint_1'
p274
aS'one_outer_insertion_joint'
p275
aS'one_outer_roll_joint'
p276
aS'one_outer_wrist_pitch_joint'
p277
aS'one_outer_wrist_yaw_joint'
p278
aS'one_outer_wrist_open_angle_joint_1'
p279
aS'one_outer_pitch_joint_2'
p280
aS'two_outer_pitch_joint_2'
p281
aS'one_outer_pitch_joint_3'
p282
aS'two_outer_pitch_joint_3'
p283
aS'one_outer_pitch_joint_4'
p284
aS'two_outer_pitch_joint_4'
p285
aS'one_outer_pitch_joint_5'
p286
aS'two_outer_pitch_joint_5'
p287
aS'one_outer_wrist_open_angle_joint_2'
p288
aS'two_outer_wrist_open_angle_joint_2'
p289
aa(F0.7346354978989509
F-0.023006365888566284
F0.1892837002498619
F-3.5256863698835175
F0.19319666306060193
F0.22640974339566294
F-0.28096145696858615
F-0.046379923881808185
F-0.3001600494278441
F0.11386284626020303
F-4.5347229946252545
F0.10377033199300477
F0.09212858113021619
F0.17430656059076205
F-0.3001600494278441
F-0.023006365888566284
F0.3001600494278441
F0.023006365888566284
F0.3001600494278441
F0.023006365888566284
F-0.3001600494278441
F-0.023006365888566284
F-0.17430656059076205
F0.28096145696858615
tp290
a(ta(tabasS'27'
p291
(lp292
g3
(g4
g5
Ntp293
Rp294
(lp295
g3
(g9
g5
Ntp296
Rp297
(lp298
I4276521
ag3
(g13
g5
Ntp299
Rp300
(lp301
I1405641005
aI977603572
abaS'/two_remote_center_link'
p302
abag3
(g18
g5
Ntp303
Rp304
(lp305
g3
(g22
g5
Ntp306
Rp307
(lp308
F0.11359745884625523
aF0.005861571907067145
aF-0.14345262971235068
abag3
(g26
g5
Ntp309
Rp310
(lp311
F0.7968291533172703
aF-0.5602502061399495
aF0.13958371798073135
aF-0.17804323244229797
abababag3
(g30
g5
Ntp312
Rp313
(lp314
g3
(g9
g5
Ntp315
Rp316
(lp317
I4270052
ag3
(g13
g5
Ntp318
Rp319
(lp320
I1405641005
aI975539640
abag40
aba(lp321
S'two_outer_yaw_joint'
p322
aS'two_outer_pitch_joint_1'
p323
aS'two_outer_insertion_joint'
p324
aS'two_outer_roll_joint'
p325
aS'two_outer_wrist_pitch_joint'
p326
aS'two_outer_wrist_yaw_joint'
p327
aS'two_outer_wrist_open_angle_joint_1'
p328
aS'one_outer_yaw_joint'
p329
aS'one_outer_pitch_joint_1'
p330
aS'one_outer_insertion_joint'
p331
aS'one_outer_roll_joint'
p332
aS'one_outer_wrist_pitch_joint'
p333
aS'one_outer_wrist_yaw_joint'
p334
aS'one_outer_wrist_open_angle_joint_1'
p335
aS'one_outer_pitch_joint_2'
p336
aS'two_outer_pitch_joint_2'
p337
aS'one_outer_pitch_joint_3'
p338
aS'two_outer_pitch_joint_3'
p339
aS'one_outer_pitch_joint_4'
p340
aS'two_outer_pitch_joint_4'
p341
aS'one_outer_pitch_joint_5'
p342
aS'two_outer_pitch_joint_5'
p343
aS'one_outer_wrist_open_angle_joint_2'
p344
aS'two_outer_wrist_open_angle_joint_2'
p345
aa(F0.6856810942092417
F-0.01741510728762774
F0.1798454127598619
F-3.4220995378021626
F0.17775673858710717
F0.2031429995916517
F-0.13052157205891496
F-0.046379923881808185
F-0.30015232669496983
F0.11386284626020303
F-4.5347229946252545
F0.10377033199300477
F0.09212858113021619
F0.17430656059076205
F-0.30015232669496983
F-0.01741510728762774
F0.30015232669496983
F0.01741510728762774
F0.30015232669496983
F0.01741510728762774
F-0.30015232669496983
F-0.01741510728762774
F-0.17430656059076205
F0.13052157205891496
tp346
a(ta(tabasS'20'
p347
(lp348
g3
(g4
g5
Ntp349
Rp350
(lp351
g3
(g9
g5
Ntp352
Rp353
(lp354
I4179439
ag3
(g13
g5
Ntp355
Rp356
(lp357
I1405640805
aI410442476
abaS'/two_remote_center_link'
p358
abag3
(g18
g5
Ntp359
Rp360
(lp361
g3
(g22
g5
Ntp362
Rp363
(lp364
F0.10196022376023604
aF-0.007770458835189072
aF-0.14438072537778543
abag3
(g26
g5
Ntp365
Rp366
(lp367
F0.8310560889475398
aF-0.505167152832965
aF0.17421096666058294
aF-0.15428047127566125
abababag3
(g30
g5
Ntp368
Rp369
(lp370
g3
(g9
g5
Ntp371
Rp372
(lp373
I4172956
ag3
(g13
g5
Ntp374
Rp375
(lp376
I1405640805
aI379616023
abag40
aba(lp377
S'two_outer_yaw_joint'
p378
aS'two_outer_pitch_joint_1'
p379
aS'two_outer_insertion_joint'
p380
aS'two_outer_roll_joint'
p381
aS'two_outer_wrist_pitch_joint'
p382
aS'two_outer_wrist_yaw_joint'
p383
aS'two_outer_wrist_open_angle_joint_1'
p384
aS'one_outer_yaw_joint'
p385
aS'one_outer_pitch_joint_1'
p386
aS'one_outer_insertion_joint'
p387
aS'one_outer_roll_joint'
p388
aS'one_outer_wrist_pitch_joint'
p389
aS'one_outer_wrist_yaw_joint'
p390
aS'one_outer_wrist_open_angle_joint_1'
p391
aS'one_outer_pitch_joint_2'
p392
aS'two_outer_pitch_joint_2'
p393
aS'one_outer_pitch_joint_3'
p394
aS'two_outer_pitch_joint_3'
p395
aS'one_outer_pitch_joint_4'
p396
aS'two_outer_pitch_joint_4'
p397
aS'one_outer_pitch_joint_5'
p398
aS'two_outer_pitch_joint_5'
p399
aS'one_outer_wrist_open_angle_joint_2'
p400
aS'two_outer_wrist_open_angle_joint_2'
p401
aa(F0.6287799983919555
F0.06124092703634889
F0.17360248011986193
F-3.59069025236372
F0.19989185154910852
F0.08707881102415677
F-0.2866784992832859
F-0.046372201148933964
F-0.30015232669496983
F0.11386284626020303
F-4.5347229946252545
F0.1039069684927702
F0.09201716322651976
F0.17430656059076205
F-0.30015232669496983
F0.06124092703634889
F0.30015232669496983
F-0.06124092703634889
F0.30015232669496983
F-0.06124092703634889
F-0.30015232669496983
F0.06124092703634889
F-0.17430656059076205
F0.2866784992832859
tp402
a(ta(tabasS'21'
p403
(lp404
g3
(g4
g5
Ntp405
Rp406
(lp407
g3
(g9
g5
Ntp408
Rp409
(lp410
I4189497
ag3
(g13
g5
Ntp411
Rp412
(lp413
I1405640826
aI195266044
abaS'/two_remote_center_link'
p414
abag3
(g18
g5
Ntp415
Rp416
(lp417
g3
(g22
g5
Ntp418
Rp419
(lp420
F0.09051285791520611
aF-0.008080176869982893
aF-0.14284093570294576
abag3
(g26
g5
Ntp421
Rp422
(lp423
F0.8102276065253095
aF-0.5434983527098032
aF0.1469966652319573
aF-0.16288875540282927
abababag3
(g30
g5
Ntp424
Rp425
(lp426
g3
(g9
g5
Ntp427
Rp428
(lp429
I4183013
ag3
(g13
g5
Ntp430
Rp431
(lp432
I1405640826
aI162361496
abag40
aba(lp433
S'two_outer_yaw_joint'
p434
aS'two_outer_pitch_joint_1'
p435
aS'two_outer_insertion_joint'
p436
aS'two_outer_roll_joint'
p437
aS'two_outer_wrist_pitch_joint'
p438
aS'two_outer_wrist_yaw_joint'
p439
aS'two_outer_wrist_open_angle_joint_1'
p440
aS'one_outer_yaw_joint'
p441
aS'one_outer_pitch_joint_1'
p442
aS'one_outer_insertion_joint'
p443
aS'one_outer_roll_joint'
p444
aS'one_outer_wrist_pitch_joint'
p445
aS'one_outer_wrist_yaw_joint'
p446
aS'one_outer_wrist_open_angle_joint_1'
p447
aS'one_outer_pitch_joint_2'
p448
aS'two_outer_pitch_joint_2'
p449
aS'one_outer_pitch_joint_3'
p450
aS'two_outer_pitch_joint_3'
p451
aS'one_outer_pitch_joint_4'
p452
aS'two_outer_pitch_joint_4'
p453
aS'one_outer_pitch_joint_5'
p454
aS'two_outer_pitch_joint_5'
p455
aS'one_outer_wrist_open_angle_joint_2'
p456
aS'two_outer_wrist_open_angle_joint_2'
p457
aa(F0.5775473885043502
F0.06877831432159201
F0.16601399845986192
F-3.496958847626137
F0.213692138025418
F0.07680574763250496
F-0.2876585636800916
F-0.046364478416059736
F-0.3001600494278441
F0.11386414255020302
F-4.5347229946252545
F0.1039069684927702
F0.0919354844863792
F0.17479659278916487
F-0.3001600494278441
F0.06877831432159201
F0.3001600494278441
F-0.06877831432159201
F0.3001600494278441
F-0.06877831432159201
F-0.3001600494278441
F0.06877831432159201
F-0.17479659278916487
F0.2876585636800916
tp458
a(ta(tabasS'22'
p459
(lp460
g3
(g4
g5
Ntp461
Rp462
(lp463
g3
(g9
g5
Ntp464
Rp465
(lp466
I4198455
ag3
(g13
g5
Ntp467
Rp468
(lp469
I1405640844
aI710706548
abaS'/two_remote_center_link'
p470
abag3
(g18
g5
Ntp471
Rp472
(lp473
g3
(g22
g5
Ntp474
Rp475
(lp476
F0.07782800833691864
aF-0.009117844738547163
aF-0.14193982927065352
abag3
(g26
g5
Ntp477
Rp478
(lp479
F0.8056131316281158
aF-0.5592736361190883
aF0.11839771363575399
aF-0.1555071171885699
abababag3
(g30
g5
Ntp480
Rp481
(lp482
g3
(g9
g5
Ntp483
Rp484
(lp485
I4191971
ag3
(g13
g5
Ntp486
Rp487
(lp488
I1405640844
aI677642373
abag40
aba(lp489
S'two_outer_yaw_joint'
p490
aS'two_outer_pitch_joint_1'
p491
aS'two_outer_insertion_joint'
p492
aS'two_outer_roll_joint'
p493
aS'two_outer_wrist_pitch_joint'
p494
aS'two_outer_wrist_yaw_joint'
p495
aS'two_outer_wrist_open_angle_joint_1'
p496
aS'one_outer_yaw_joint'
p497
aS'one_outer_pitch_joint_1'
p498
aS'one_outer_insertion_joint'
p499
aS'one_outer_roll_joint'
p500
aS'one_outer_wrist_pitch_joint'
p501
aS'one_outer_wrist_yaw_joint'
p502
aS'one_outer_wrist_open_angle_joint_1'
p503
aS'one_outer_pitch_joint_2'
p504
aS'two_outer_pitch_joint_2'
p505
aS'one_outer_pitch_joint_3'
p506
aS'two_outer_pitch_joint_3'
p507
aS'one_outer_pitch_joint_4'
p508
aS'two_outer_pitch_joint_4'
p509
aS'one_outer_pitch_joint_5'
p510
aS'two_outer_pitch_joint_5'
p511
aS'one_outer_wrist_open_angle_joint_2'
p512
aS'two_outer_wrist_open_angle_joint_2'
p513
aa(F0.5143059289973256
F0.08098795499574096
F0.15891551441986193
F-3.465715046046944
F0.23323115749187598
F0.06691721417431831
F-0.2879852518123601
F-0.046364478416059736
F-0.3001600494278441
F0.11386414255020302
F-4.5347229946252545
F0.1039069684927702
F0.09201716322651976
F0.17495993685529915
F-0.3001600494278441
F0.08098795499574096
F0.3001600494278441
F-0.08098795499574096
F0.3001600494278441
F-0.08098795499574096
F-0.3001600494278441
F0.08098795499574096
F-0.17495993685529915
F0.2879852518123601
tp514
a(ta(tabasS'23'
p515
(lp516
g3
(g4
g5
Ntp517
Rp518
(lp519
g3
(g9
g5
Ntp520
Rp521
(lp522
I4210784
ag3
(g13
g5
Ntp523
Rp524
(lp525
I1405640870
aI146025998
abaS'/two_remote_center_link'
p526
abag3
(g18
g5
Ntp527
Rp528
(lp529
g3
(g22
g5
Ntp530
Rp531
(lp532
F0.06494170199307311
aF-0.009701550875852252
aF-0.14137716777752873
abag3
(g26
g5
Ntp533
Rp534
(lp535
F0.8287909743692784
aF-0.5306370008084255
aF0.10464585967343232
aF-0.14345430711648016
abababag3
(g30
g5
Ntp536
Rp537
(lp538
g3
(g9
g5
Ntp539
Rp540
(lp541
I4204305
ag3
(g13
g5
Ntp542
Rp543
(lp544
I1405640870
aI123316763
abag40
aba(lp545
S'two_outer_yaw_joint'
p546
aS'two_outer_pitch_joint_1'
p547
aS'two_outer_insertion_joint'
p548
aS'two_outer_roll_joint'
p549
aS'two_outer_wrist_pitch_joint'
p550
aS'two_outer_wrist_yaw_joint'
p551
aS'two_outer_wrist_open_angle_joint_1'
p552
aS'one_outer_yaw_joint'
p553
aS'one_outer_pitch_joint_1'
p554
aS'one_outer_insertion_joint'
p555
aS'one_outer_roll_joint'
p556
aS'one_outer_wrist_pitch_joint'
p557
aS'one_outer_wrist_yaw_joint'
p558
aS'one_outer_wrist_open_angle_joint_1'
p559
aS'one_outer_pitch_joint_2'
p560
aS'two_outer_pitch_joint_2'
p561
aS'one_outer_pitch_joint_3'
p562
aS'two_outer_pitch_joint_3'
p563
aS'one_outer_pitch_joint_4'
p564
aS'two_outer_pitch_joint_4'
p565
aS'one_outer_pitch_joint_5'
p566
aS'two_outer_pitch_joint_5'
p567
aS'one_outer_wrist_open_angle_joint_2'
p568
aS'two_outer_wrist_open_angle_joint_2'
p569
aa(F0.4431795592257179
F0.08911226997942515
F0.15267387806986193
F-3.5481231938363615
F0.2414293474778024
F0.014165330513255914
F-0.2876585636800916
F-0.046364478416059736
F-0.3001600494278441
F0.11386414255020302
F-4.5347229946252545
F0.1039069684927702
F0.09201716322651976
F0.1746332487230306
F-0.3001600494278441
F0.08911226997942515
F0.3001600494278441
F-0.08911226997942515
F0.3001600494278441
F-0.08911226997942515
F-0.3001600494278441
F0.08911226997942515
F-0.1746332487230306
F0.2876585636800916
tp570
a(ta(tabasS'46'
p571
(lp572
g3
(g4
g5
Ntp573
Rp574
(lp575
g3
(g9
g5
Ntp576
Rp577
(lp578
I4622889
ag3
(g13
g5
Ntp579
Rp580
(lp581
I1405641721
aI231194124
abaS'/two_remote_center_link'
p582
abag3
(g18
g5
Ntp583
Rp584
(lp585
g3
(g22
g5
Ntp586
Rp587
(lp588
F0.07401312134124494
aF0.027550786059381473
aF-0.14052560339204406
abag3
(g26
g5
Ntp589
Rp590
(lp591
F0.8670011438992193
aF-0.43402957526449765
aF0.08524556029572264
aF-0.2294788415585046
abababag3
(g30
g5
Ntp592
Rp593
(lp594
g3
(g9
g5
Ntp595
Rp596
(lp597
I4616411
ag3
(g13
g5
Ntp598
Rp599
(lp600
I1405641721
aI210626035
abag40
aba(lp601
S'two_outer_yaw_joint'
p602
aS'two_outer_pitch_joint_1'
p603
aS'two_outer_insertion_joint'
p604
aS'two_outer_roll_joint'
p605
aS'two_outer_wrist_pitch_joint'
p606
aS'two_outer_wrist_yaw_joint'
p607
aS'two_outer_wrist_open_angle_joint_1'
p608
aS'one_outer_yaw_joint'
p609
aS'one_outer_pitch_joint_1'
p610
aS'one_outer_insertion_joint'
p611
aS'one_outer_roll_joint'
p612
aS'one_outer_wrist_pitch_joint'
p613
aS'one_outer_wrist_yaw_joint'
p614
aS'one_outer_wrist_open_angle_joint_1'
p615
aS'one_outer_pitch_joint_2'
p616
aS'two_outer_pitch_joint_2'
p617
aS'one_outer_pitch_joint_3'
p618
aS'two_outer_pitch_joint_3'
p619
aS'one_outer_pitch_joint_4'
p620
aS'two_outer_pitch_joint_4'
p621
aS'one_outer_pitch_joint_5'
p622
aS'two_outer_pitch_joint_5'
p623
aS'one_outer_wrist_open_angle_joint_2'
p624
aS'two_outer_wrist_open_angle_joint_2'
p625
aa(F0.4986210585297757
F-0.15007621260105636
F0.15789144531986193
F-3.690922045349323
F0.2157416855218996
F0.005135798776596808
F-0.274427694323215
F-0.046379923881808185
F-0.30014460396209564
F0.11386284626020303
F-4.5347229946252545
F0.10377033199300477
F0.09221025987035675
F0.17414321652462778
F-0.30014460396209564
F-0.15007621260105636
F0.30014460396209564
F0.15007621260105636
F0.30014460396209564
F0.15007621260105636
F-0.30014460396209564
F-0.15007621260105636
F-0.17414321652462778
F0.274427694323215
tp626
a(ta(tabasS'47'
p627
(lp628
g3
(g4
g5
Ntp629
Rp630
(lp631
g3
(g9
g5
Ntp632
Rp633
(lp634
I4633315
ag3
(g13
g5
Ntp635
Rp636
(lp637
I1405641742
aI775254155
abaS'/two_remote_center_link'
p638
abag3
(g18
g5
Ntp639
Rp640
(lp641
g3
(g22
g5
Ntp642
Rp643
(lp644
F0.061436433757854764
aF0.02623896825926846
aF-0.13974337793192487
abag3
(g26
g5
Ntp645
Rp646
(lp647
F0.8993548105119883
aF-0.38380440027605817
aF0.06454255170150336
aF-0.19922190180183452
abababag3
(g30
g5
Ntp648
Rp649
(lp650
g3
(g9
g5
Ntp651
Rp652
(lp653
I4626837
ag3
(g13
g5
Ntp654
Rp655
(lp656
I1405641742
aI754693226
abag40
aba(lp657
S'two_outer_yaw_joint'
p658
aS'two_outer_pitch_joint_1'
p659
aS'two_outer_insertion_joint'
p660
aS'two_outer_roll_joint'
p661
aS'two_outer_wrist_pitch_joint'
p662
aS'two_outer_wrist_yaw_joint'
p663
aS'two_outer_wrist_open_angle_joint_1'
p664
aS'one_outer_yaw_joint'
p665
aS'one_outer_pitch_joint_1'
p666
aS'one_outer_insertion_joint'
p667
aS'one_outer_roll_joint'
p668
aS'one_outer_wrist_pitch_joint'
p669
aS'one_outer_wrist_yaw_joint'
p670
aS'one_outer_wrist_open_angle_joint_1'
p671
aS'one_outer_pitch_joint_2'
p672
aS'two_outer_pitch_joint_2'
p673
aS'one_outer_pitch_joint_3'
p674
aS'two_outer_pitch_joint_3'
p675
aS'one_outer_pitch_joint_4'
p676
aS'two_outer_pitch_joint_4'
p677
aS'one_outer_pitch_joint_5'
p678
aS'two_outer_pitch_joint_5'
p679
aS'one_outer_wrist_open_angle_joint_2'
p680
aS'two_outer_wrist_open_angle_joint_2'
p681
aa(F0.4314564507226451
F-0.14960512589572866
F0.15158499446986193
F-3.826381748840325
F0.21628823152096138
F0.0018313712568914058
F-0.2811248010347204
F-0.046387646614682414
F-0.30014460396209564
F0.11386284626020303
F-4.5347229946252545
F0.10377033199300477
F0.09212858113021619
F0.17495993685529915
F-0.30014460396209564
F-0.14960512589572866
F0.30014460396209564
F0.14960512589572866
F0.30014460396209564
F0.14960512589572866
F-0.30014460396209564
F-0.14960512589572866
F-0.17495993685529915
F0.2811248010347204
tp682
a(ta(tabasS'44'
p683
(lp684
g3
(g4
g5
Ntp685
Rp686
(lp687
g3
(g9
g5
Ntp688
Rp689
(lp690
I4602470
ag3
(g13
g5
Ntp691
Rp692
(lp693
I1405641679
aI94607504
abaS'/two_remote_center_link'
p694
abag3
(g18
g5
Ntp695
Rp696
(lp697
g3
(g22
g5
Ntp698
Rp699
(lp700
F0.09856200752341682
aF0.02964397192845391
aF-0.14153269752753458
abag3
(g26
g5
Ntp701
Rp702
(lp703
F0.8847213920182905
aF-0.3648082589071265
aF0.14498522895593843
aF-0.2513210618371718
abababag3
(g30
g5
Ntp704
Rp705
(lp706
g3
(g9
g5
Ntp707
Rp708
(lp709
I4595994
ag3
(g13
g5
Ntp710
Rp711
(lp712
I1405641679
aI78161067
abag40
aba(lp713
S'two_outer_yaw_joint'
p714
aS'two_outer_pitch_joint_1'
p715
aS'two_outer_insertion_joint'
p716
aS'two_outer_roll_joint'
p717
aS'two_outer_wrist_pitch_joint'
p718
aS'two_outer_wrist_yaw_joint'
p719
aS'two_outer_wrist_open_angle_joint_1'
p720
aS'one_outer_yaw_joint'
p721
aS'one_outer_pitch_joint_1'
p722
aS'one_outer_insertion_joint'
p723
aS'one_outer_roll_joint'
p724
aS'one_outer_wrist_pitch_joint'
p725
aS'one_outer_wrist_yaw_joint'
p726
aS'one_outer_wrist_open_angle_joint_1'
p727
aS'one_outer_pitch_joint_2'
p728
aS'two_outer_pitch_joint_2'
p729
aS'one_outer_pitch_joint_3'
p730
aS'two_outer_pitch_joint_3'
p731
aS'one_outer_pitch_joint_4'
p732
aS'two_outer_pitch_joint_4'
p733
aS'one_outer_pitch_joint_5'
p734
aS'two_outer_pitch_joint_5'
p735
aS'one_outer_wrist_open_angle_joint_2'
p736
aS'two_outer_wrist_open_angle_joint_2'
p737
aa(F0.623567153701854
F-0.14924215745064012
F0.17177860008986193
F-3.8123325226268627
F0.23610052398695025
F-0.021511953911459162
F-0.2755711027861549
F-0.046387646614682414
F-0.30014460396209564
F0.11386284626020303
F-4.5347229946252545
F0.10377033199300477
F0.09204690239007562
F0.17479659278916487
F-0.30014460396209564
F-0.14924215745064012
F0.30014460396209564
F0.14924215745064012
F0.30014460396209564
F0.14924215745064012
F-0.30014460396209564
F-0.14924215745064012
F-0.17479659278916487
F0.2755711027861549
tp738
a(ta(tabasS'45'
p739
(lp740
g3
(g4
g5
Ntp741
Rp742
(lp743
g3
(g9
g5
Ntp744
Rp745
(lp746
I4615195
ag3
(g13
g5
Ntp747
Rp748
(lp749
I1405641705
aI350092926
abaS'/two_remote_center_link'
p750
abag3
(g18
g5
Ntp751
Rp752
(lp753
g3
(g22
g5
Ntp754
Rp755
(lp756
F0.08659726584248413
aF0.02827474934024802
aF-0.14054688190471623
abag3
(g26
g5
Ntp757
Rp758
(lp759
F0.8601705599774643
aF-0.4333481238079189
aF0.11476662465503312
aF-0.24319669653493053
abababag3
(g30
g5
Ntp760
Rp761
(lp762
g3
(g9
g5
Ntp763
Rp764
(lp765
I4608718
ag3
(g13
g5
Ntp766
Rp767
(lp768
I1405641705
aI331124271
abag40
aba(lp769
S'two_outer_yaw_joint'
p770
aS'two_outer_pitch_joint_1'
p771
aS'two_outer_insertion_joint'
p772
aS'two_outer_roll_joint'
p773
aS'two_outer_wrist_pitch_joint'
p774
aS'two_outer_wrist_yaw_joint'
p775
aS'two_outer_wrist_open_angle_joint_1'
p776
aS'one_outer_yaw_joint'
p777
aS'one_outer_pitch_joint_1'
p778
aS'one_outer_insertion_joint'
p779
aS'one_outer_roll_joint'
p780
aS'one_outer_wrist_pitch_joint'
p781
aS'one_outer_wrist_yaw_joint'
p782
aS'one_outer_wrist_open_angle_joint_1'
p783
aS'one_outer_pitch_joint_2'
p784
aS'two_outer_pitch_joint_2'
p785
aS'one_outer_pitch_joint_3'
p786
aS'two_outer_pitch_joint_3'
p787
aS'one_outer_pitch_joint_4'
p788
aS'two_outer_pitch_joint_4'
p789
aS'one_outer_pitch_joint_5'
p790
aS'two_outer_pitch_joint_5'
p791
aS'one_outer_wrist_open_angle_joint_2'
p792
aS'two_outer_wrist_open_angle_joint_2'
p793
aa(F0.5650597294467291
F-0.14918809832052055
F0.16416419262986193
F-3.675824369418437
F0.210276225531282
F0.008122297601923487
F-0.2783479519104377
F-0.046379923881808185
F-0.30014460396209564
F0.11386284626020303
F-4.5347229946252545
F0.10377033199300477
F0.09221025987035675
F0.17446990465689632
F-0.30014460396209564
F-0.14918809832052055
F0.30014460396209564
F0.14918809832052055
F0.30014460396209564
F0.14918809832052055
F-0.30014460396209564
F-0.14918809832052055
F-0.17446990465689632
F0.2783479519104377
tp794
a(ta(tabasS'28'
p795
(lp796
g3
(g4
g5
Ntp797
Rp798
(lp799
g3
(g9
g5
Ntp800
Rp801
(lp802
I4285660
ag3
(g13
g5
Ntp803
Rp804
(lp805
I1405641024
aI840347563
abaS'/two_remote_center_link'
p806
abag3
(g18
g5
Ntp807
Rp808
(lp809
g3
(g22
g5
Ntp810
Rp811
(lp812
F0.10112776214687509
aF0.0044733507047081435
aF-0.14367460831302153
abag3
(g26
g5
Ntp813
Rp814
(lp815
F0.7457227104860591
aF-0.6228787703663845
aF0.1368651948780669
aF-0.1928408538748338
abababag3
(g30
g5
Ntp816
Rp817
(lp818
g3
(g9
g5
Ntp819
Rp820
(lp821
I4279174
ag3
(g13
g5
Ntp822
Rp823
(lp824
I1405641024
aI803277398
abag40
aba(lp825
S'two_outer_yaw_joint'
p826
aS'two_outer_pitch_joint_1'
p827
aS'two_outer_insertion_joint'
p828
aS'two_outer_roll_joint'
p829
aS'two_outer_wrist_pitch_joint'
p830
aS'two_outer_wrist_yaw_joint'
p831
aS'two_outer_wrist_open_angle_joint_1'
p832
aS'one_outer_yaw_joint'
p833
aS'one_outer_pitch_joint_1'
p834
aS'one_outer_insertion_joint'
p835
aS'one_outer_roll_joint'
p836
aS'one_outer_wrist_pitch_joint'
p837
aS'one_outer_wrist_yaw_joint'
p838
aS'one_outer_wrist_open_angle_joint_1'
p839
aS'one_outer_pitch_joint_2'
p840
aS'two_outer_pitch_joint_2'
p841
aS'one_outer_pitch_joint_3'
p842
aS'two_outer_pitch_joint_3'
p843
aS'one_outer_pitch_joint_4'
p844
aS'two_outer_pitch_joint_4'
p845
aS'one_outer_pitch_joint_5'
p846
aS'two_outer_pitch_joint_5'
p847
aS'one_outer_wrist_open_angle_joint_2'
p848
aS'two_outer_wrist_open_angle_joint_2'
p849
aa(F0.6233200262498788
F-0.012951367686325974
F0.17228674576986192
F-3.2734293678716346
F0.1258348686762398
F0.14305666286002677
F-0.2866784992832859
F-0.046379923881808185
F-0.30015232669496983
F0.11386284626020303
F-4.5347229946252545
F0.10377033199300477
F0.09221025987035675
F0.17446990465689632
F-0.30015232669496983
F-0.012951367686325974
F0.30015232669496983
F0.012951367686325974
F0.30015232669496983
F0.012951367686325974
F-0.30015232669496983
F-0.012951367686325974
F-0.17446990465689632
F0.2866784992832859
tp850
a(ta(tabasS'29'
p851
(lp852
g3
(g4
g5
Ntp853
Rp854
(lp855
g3
(g9
g5
Ntp856
Rp857
(lp858
I4294922
ag3
(g13
g5
Ntp859
Rp860
(lp861
I1405641043
aI991760413
abaS'/two_remote_center_link'
p862
abag3
(g18
g5
Ntp863
Rp864
(lp865
g3
(g22
g5
Ntp866
Rp867
(lp868
F0.08823209216326588
aF0.0033987863712039257
aF-0.1434302813078109
abag3
(g26
g5
Ntp869
Rp870
(lp871
F0.806016916796431
aF-0.5520876639419248
aF0.1569188588567127
aF-0.1446112474748446
abababag3
(g30
g5
Ntp872
Rp873
(lp874
g3
(g9
g5
Ntp875
Rp876
(lp877
I4288436
ag3
(g13
g5
Ntp878
Rp879
(lp880
I1405641043
aI954779409
abag40
aba(lp881
S'two_outer_yaw_joint'
p882
aS'two_outer_pitch_joint_1'
p883
aS'two_outer_insertion_joint'
p884
aS'two_outer_roll_joint'
p885
aS'two_outer_wrist_pitch_joint'
p886
aS'two_outer_wrist_yaw_joint'
p887
aS'two_outer_wrist_open_angle_joint_1'
p888
aS'one_outer_yaw_joint'
p889
aS'one_outer_pitch_joint_1'
p890
aS'one_outer_insertion_joint'
p891
aS'one_outer_roll_joint'
p892
aS'one_outer_wrist_pitch_joint'
p893
aS'one_outer_wrist_yaw_joint'
p894
aS'one_outer_wrist_open_angle_joint_1'
p895
aS'one_outer_pitch_joint_2'
p896
aS'two_outer_pitch_joint_2'
p897
aS'one_outer_pitch_joint_3'
p898
aS'two_outer_pitch_joint_3'
p899
aS'one_outer_pitch_joint_4'
p900
aS'two_outer_pitch_joint_4'
p901
aS'one_outer_pitch_joint_5'
p902
aS'two_outer_pitch_joint_5'
p903
aS'one_outer_wrist_open_angle_joint_2'
p904
aS'two_outer_wrist_open_angle_joint_2'
p905
aa(F0.5612987585369817
F-0.01270424023435079
F0.16485900406986193
F-3.4883615599432716
F0.09085592473628704
F0.11064730606145125
F-0.1132071010486814
F-0.046387646614682414
F-0.30015232669496983
F0.11386284626020303
F-4.5347229946252545
F0.10377033199300477
F0.09212858113021619
F0.1746332487230306
F-0.30015232669496983
F-0.01270424023435079
F0.30015232669496983
F0.01270424023435079
F0.30015232669496983
F0.01270424023435079
F-0.30015232669496983
F-0.01270424023435079
F-0.1746332487230306
F0.1132071010486814
tp906
a(ta(tabasS'40'
p907
(lp908
g3
(g4
g5
Ntp909
Rp910
(lp911
g3
(g9
g5
Ntp912
Rp913
(lp914
I4493205
ag3
(g13
g5
Ntp915
Rp916
(lp917
I1405641453
aI550274629
abaS'/two_remote_center_link'
p918
abag3
(g18
g5
Ntp919
Rp920
(lp921
g3
(g22
g5
Ntp922
Rp923
(lp924
F0.14894900300973127
aF0.03612710301109182
aF-0.14349833259689093
abag3
(g26
g5
Ntp925
Rp926
(lp927
F0.8765563302661133
aF-0.36268275593832977
aF0.18919708461871354
aF-0.2536033942737395
abababag3
(g30
g5
Ntp928
Rp929
(lp930
g3
(g9
g5
Ntp931
Rp932
(lp933
I4486720
ag3
(g13
g5
Ntp934
Rp935
(lp936
I1405641453
aI515320093
abag40
aba(lp937
S'two_outer_yaw_joint'
p938
aS'two_outer_pitch_joint_1'
p939
aS'two_outer_insertion_joint'
p940
aS'two_outer_roll_joint'
p941
aS'two_outer_wrist_pitch_joint'
p942
aS'two_outer_wrist_yaw_joint'
p943
aS'two_outer_wrist_open_angle_joint_1'
p944
aS'one_outer_yaw_joint'
p945
aS'one_outer_pitch_joint_1'
p946
aS'one_outer_insertion_joint'
p947
aS'one_outer_roll_joint'
p948
aS'one_outer_wrist_pitch_joint'
p949
aS'one_outer_wrist_yaw_joint'
p950
aS'one_outer_wrist_open_angle_joint_1'
p951
aS'one_outer_pitch_joint_2'
p952
aS'two_outer_pitch_joint_2'
p953
aS'one_outer_pitch_joint_3'
p954
aS'two_outer_pitch_joint_3'
p955
aS'one_outer_pitch_joint_4'
p956
aS'two_outer_pitch_joint_4'
p957
aS'one_outer_pitch_joint_5'
p958
aS'two_outer_pitch_joint_5'
p959
aS'one_outer_wrist_open_angle_joint_2'
p960
aS'two_outer_wrist_open_angle_joint_2'
p961
aa(F0.8225356434733743
F-0.15566747120199492
F0.20695083665986191
F-3.7632650758514834
F0.27230919642479195
F0.09786264488523412
F-0.2959891110529398
F-0.046387646614682414
F-0.3001677721607183
F0.11386284626020303
F-4.5347229946252545
F0.10377033199300477
F0.09212858113021619
F0.17495993685529915
F-0.3001677721607183
F-0.15566747120199492
F0.3001677721607183
F0.15566747120199492
F0.3001677721607183
F0.15566747120199492
F-0.3001677721607183
F-0.15566747120199492
F-0.17495993685529915
F0.2959891110529398
tp962
a(ta(tabasS'41'
p963
(lp964
g3
(g4
g5
Ntp965
Rp966
(lp967
g3
(g9
g5
Ntp968
Rp969
(lp970
I4517349
ag3
(g13
g5
Ntp971
Rp972
(lp973
I1405641503
aI387448991
abaS'/two_remote_center_link'
p974
abag3
(g18
g5
Ntp975
Rp976
(lp977
g3
(g22
g5
Ntp978
Rp979
(lp980
F0.13555046589317143
aF0.03362053440132016
aF-0.14387779231288744
abag3
(g26
g5
Ntp981
Rp982
(lp983
F0.8944428635498586
aF-0.3399643688860675
aF0.18881030825290873
aF-0.2207869091003098
abababag3
(g30
g5
Ntp984
Rp985
(lp986
g3
(g9
g5
Ntp987
Rp988
(lp989
I4510877
ag3
(g13
g5
Ntp990
Rp991
(lp992
I1405641503
aI379201440
abag40
aba(lp993
S'two_outer_yaw_joint'
p994
aS'two_outer_pitch_joint_1'
p995
aS'two_outer_insertion_joint'
p996
aS'two_outer_roll_joint'
p997
aS'two_outer_wrist_pitch_joint'
p998
aS'two_outer_wrist_yaw_joint'
p999
aS'two_outer_wrist_open_angle_joint_1'
p1000
aS'one_outer_yaw_joint'
p1001
aS'one_outer_pitch_joint_1'
p1002
aS'one_outer_insertion_joint'
p1003
aS'one_outer_roll_joint'
p1004
aS'one_outer_wrist_pitch_joint'
p1005
aS'one_outer_wrist_yaw_joint'
p1006
aS'one_outer_wrist_open_angle_joint_1'
p1007
aS'one_outer_pitch_joint_2'
p1008
aS'two_outer_pitch_joint_2'
p1009
aS'one_outer_pitch_joint_3'
p1010
aS'two_outer_pitch_joint_3'
p1011
aS'one_outer_pitch_joint_4'
p1012
aS'two_outer_pitch_joint_4'
p1013
aS'one_outer_pitch_joint_5'
p1014
aS'two_outer_pitch_joint_5'
p1015
aS'one_outer_wrist_open_angle_joint_2'
p1016
aS'two_outer_wrist_open_angle_joint_2'
p1017
aa(F0.7749095498380316
F-0.15397619270253973
F0.19738551274986194
F-3.848189502962716
F0.2462116249695928
F0.0994588881173751
F-0.2938656381931942
F-0.046395369347556635
F-0.3001677721607183
F0.11386284626020303
F-4.5347229946252545
F0.10377033199300477
F0.09229193861049731
F0.17430656059076205
F-0.3001677721607183
F-0.15397619270253973
F0.3001677721607183
F0.15397619270253973
F0.3001677721607183
F0.15397619270253973
F-0.3001677721607183
F-0.15397619270253973
F-0.17430656059076205
F0.2938656381931942
tp1018
a(ta(tabasS'1'
p1019
(lp1020
g3
(g4
g5
Ntp1021
Rp1022
(lp1023
g3
(g9
g5
Ntp1024
Rp1025
(lp1026
I3790623
ag3
(g13
g5
Ntp1027
Rp1028
(lp1029
I1405640002
aI691985727
abaS'/two_remote_center_link'
p1030
abag3
(g18
g5
Ntp1031
Rp1032
(lp1033
g3
(g22
g5
Ntp1034
Rp1035
(lp1036
F0.14224243162064903
aF-0.028841377877450055
aF-0.14734710162699954
abag3
(g26
g5
Ntp1037
Rp1038
(lp1039
F0.894603383252462
aF-0.2806165622358301
aF0.3451530213750204
aF-0.042526738740326274
abababag3
(g30
g5
Ntp1040
Rp1041
(lp1042
g3
(g9
g5
Ntp1043
Rp1044
(lp1045
I3784153
ag3
(g13
g5
Ntp1046
Rp1047
(lp1048
I1405640002
aI687876490
abag40
aba(lp1049
S'two_outer_yaw_joint'
p1050
aS'two_outer_pitch_joint_1'
p1051
aS'two_outer_insertion_joint'
p1052
aS'two_outer_roll_joint'
p1053
aS'two_outer_wrist_pitch_joint'
p1054
aS'two_outer_wrist_yaw_joint'
p1055
aS'two_outer_wrist_open_angle_joint_1'
p1056
aS'one_outer_yaw_joint'
p1057
aS'one_outer_pitch_joint_1'
p1058
aS'one_outer_insertion_joint'
p1059
aS'one_outer_roll_joint'
p1060
aS'one_outer_wrist_pitch_joint'
p1061
aS'one_outer_wrist_yaw_joint'
p1062
aS'one_outer_wrist_open_angle_joint_1'
p1063
aS'one_outer_pitch_joint_2'
p1064
aS'two_outer_pitch_joint_2'
p1065
aS'one_outer_pitch_joint_3'
p1066
aS'two_outer_pitch_joint_3'
p1067
aS'one_outer_pitch_joint_4'
p1068
aS'two_outer_pitch_joint_4'
p1069
aS'one_outer_pitch_joint_5'
p1070
aS'two_outer_pitch_joint_5'
p1071
aS'one_outer_wrist_open_angle_joint_2'
p1072
aS'two_outer_wrist_open_angle_joint_2'
p1073
aa(F0.7740986628862381
F0.14283159985253083
F0.20317215130986194
F-4.156433719884967
F0.07363972576584153
F0.01678834620151767
F-0.13133829238958636
F-0.046356755683185515
F-0.3001677721607183
F0.11386543884020305
F-4.5347229946252545
F0.1039069684927702
F0.09209884196666032
F0.17446990465689632
F-0.3001677721607183
F0.14283159985253083
F0.3001677721607183
F-0.14283159985253083
F0.3001677721607183
F-0.14283159985253083
F-0.3001677721607183
F0.14283159985253083
F-0.17446990465689632
F0.13133829238958636
tp1074
a(ta(tabasS'0'
p1075
(lp1076
g3
(g4
g5
Ntp1077
Rp1078
(lp1079
g3
(g9
g5
Ntp1080
Rp1081
(lp1082
I3769717
ag3
(g13
g5
Ntp1083
Rp1084
(lp1085
I1405639959
aI530229373
abaS'/two_remote_center_link'
p1086
abag3
(g18
g5
Ntp1087
Rp1088
(lp1089
g3
(g22
g5
Ntp1090
Rp1091
(lp1092
F0.15444991413855544
aF-0.02694703803750306
aF-0.14847413119893893
abag3
(g26
g5
Ntp1093
Rp1094
(lp1095
F0.8649446109694121
aF-0.37756882931818525
aF0.32798710178816665
aF-0.04167805349181177
abababag3
(g30
g5
Ntp1096
Rp1097
(lp1098
g3
(g9
g5
Ntp1099
Rp1100
(lp1101
I3763248
ag3
(g13
g5
Ntp1102
Rp1103
(lp1104
I1405639959
aI528168710
abag40
aba(lp1105
S'two_outer_yaw_joint'
p1106
aS'two_outer_pitch_joint_1'
p1107
aS'two_outer_insertion_joint'
p1108
aS'two_outer_roll_joint'
p1109
aS'two_outer_wrist_pitch_joint'
p1110
aS'two_outer_wrist_yaw_joint'
p1111
aS'two_outer_wrist_open_angle_joint_1'
p1112
aS'one_outer_yaw_joint'
p1113
aS'one_outer_pitch_joint_1'
p1114
aS'one_outer_insertion_joint'
p1115
aS'one_outer_roll_joint'
p1116
aS'one_outer_wrist_pitch_joint'
p1117
aS'one_outer_wrist_yaw_joint'
p1118
aS'one_outer_wrist_open_angle_joint_1'
p1119
aS'one_outer_pitch_joint_2'
p1120
aS'two_outer_pitch_joint_2'
p1121
aS'one_outer_pitch_joint_3'
p1122
aS'two_outer_pitch_joint_3'
p1123
aS'one_outer_pitch_joint_4'
p1124
aS'two_outer_pitch_joint_4'
p1125
aS'one_outer_pitch_joint_5'
p1126
aS'two_outer_pitch_joint_5'
p1127
aS'one_outer_wrist_open_angle_joint_2'
p1128
aS'two_outer_wrist_open_angle_joint_2'
p1129
aa(F0.8151758790442383
F0.12493802778295264
F0.21239136578986192
F-3.9675030808054106
F0.08115473325294077
F0.14673714257239115
F-0.25580647078390717
F-0.046372201148933964
F-0.30015232669496983
F0.11386154997020304
F-4.5347229946252545
F0.1039069684927702
F0.09201716322651976
F0.17495993685529915
F-0.30015232669496983
F0.12493802778295264
F0.30015232669496983
F-0.12493802778295264
F0.30015232669496983
F-0.12493802778295264
F-0.30015232669496983
F0.12493802778295264
F-0.17495993685529915
F0.25580647078390717
tp1130
a(ta(tabasS'3'
p1131
(lp1132
g3
(g4
g5
Ntp1133
Rp1134
(lp1135
g3
(g9
g5
Ntp1136
Rp1137
(lp1138
I3817106
ag3
(g13
g5
Ntp1139
Rp1140
(lp1141
I1405640057
aI431793615
abaS'/two_remote_center_link'
p1142
abag3
(g18
g5
Ntp1143
Rp1144
(lp1145
g3
(g22
g5
Ntp1146
Rp1147
(lp1148
F0.11644615039424153
aF-0.03146015812907932
aF-0.1469796007138283
abag3
(g26
g5
Ntp1149
Rp1150
(lp1151
F0.8474958860899752
aF-0.4255485855904391
aF0.2810109907978539
aF-0.14728186383038908
abababag3
(g30
g5
Ntp1152
Rp1153
(lp1154
g3
(g9
g5
Ntp1155
Rp1156
(lp1157
I3810638
ag3
(g13
g5
Ntp1158
Rp1159
(lp1160
I1405640057
aI431793615
abag40
aba(lp1161
S'two_outer_yaw_joint'
p1162
aS'two_outer_pitch_joint_1'
p1163
aS'two_outer_insertion_joint'
p1164
aS'two_outer_roll_joint'
p1165
aS'two_outer_wrist_pitch_joint'
p1166
aS'two_outer_wrist_yaw_joint'
p1167
aS'two_outer_wrist_open_angle_joint_1'
p1168
aS'one_outer_yaw_joint'
p1169
aS'one_outer_pitch_joint_1'
p1170
aS'one_outer_insertion_joint'
p1171
aS'one_outer_roll_joint'
p1172
aS'one_outer_wrist_pitch_joint'
p1173
aS'one_outer_wrist_yaw_joint'
p1174
aS'one_outer_wrist_open_angle_joint_1'
p1175
aS'one_outer_pitch_joint_2'
p1176
aS'two_outer_pitch_joint_2'
p1177
aS'one_outer_pitch_joint_3'
p1178
aS'two_outer_pitch_joint_3'
p1179
aS'one_outer_pitch_joint_4'
p1180
aS'two_outer_pitch_joint_4'
p1181
aS'one_outer_pitch_joint_5'
p1182
aS'two_outer_pitch_joint_5'
p1183
aS'one_outer_wrist_open_angle_joint_2'
p1184
aS'two_outer_wrist_open_angle_joint_2'
p1185
aa(F0.6767536150066382
F0.183151988188857
F0.18673908297986191
F-3.788847248956596
F0.17379428009390938
F-0.09126321027336083
F-0.2840649942251375
F-0.046372201148933964
F-0.30015232669496983
F0.11386284626020303
F-4.5347229946252545
F0.1039069684927702
F0.09209884196666032
F0.17446990465689632
F-0.30015232669496983
F0.183151988188857
F0.30015232669496983
F-0.183151988188857
F0.30015232669496983
F-0.183151988188857
F-0.30015232669496983
F0.183151988188857
F-0.17446990465689632
F0.2840649942251375
tp1186
a(ta(tabasS'2'
p1187
(lp1188
g3
(g4
g5
Ntp1189
Rp1190
(lp1191
g3
(g9
g5
Ntp1192
Rp1193
(lp1194
I3804430
ag3
(g13
g5
Ntp1195
Rp1196
(lp1197
I1405640031
aI250176653
abaS'/two_remote_center_link'
p1198
abag3
(g18
g5
Ntp1199
Rp1200
(lp1201
g3
(g22
g5
Ntp1202
Rp1203
(lp1204
F0.12976602589858005
aF-0.029740130511056683
aF-0.14643286713880643
abag3
(g26
g5
Ntp1205
Rp1206
(lp1207
F0.8633165154183691
aF-0.37236759204669856
aF0.3085095082723802
aF-0.1443913221241589
abababag3
(g30
g5
Ntp1208
Rp1209
(lp1210
g3
(g9
g5
Ntp1211
Rp1212
(lp1213
I3797961
ag3
(g13
g5
Ntp1214
Rp1215
(lp1216
I1405640031
aI248120264
abag40
aba(lp1217
S'two_outer_yaw_joint'
p1218
aS'two_outer_pitch_joint_1'
p1219
aS'two_outer_insertion_joint'
p1220
aS'two_outer_roll_joint'
p1221
aS'two_outer_wrist_pitch_joint'
p1222
aS'two_outer_wrist_yaw_joint'
p1223
aS'two_outer_wrist_open_angle_joint_1'
p1224
aS'one_outer_yaw_joint'
p1225
aS'one_outer_pitch_joint_1'
p1226
aS'one_outer_insertion_joint'
p1227
aS'one_outer_roll_joint'
p1228
aS'one_outer_wrist_pitch_joint'
p1229
aS'one_outer_wrist_yaw_joint'
p1230
aS'one_outer_wrist_open_angle_joint_1'
p1231
aS'one_outer_pitch_joint_2'
p1232
aS'two_outer_pitch_joint_2'
p1233
aS'one_outer_pitch_joint_3'
p1234
aS'two_outer_pitch_joint_3'
p1235
aS'one_outer_pitch_joint_4'
p1236
aS'two_outer_pitch_joint_4'
p1237
aS'one_outer_pitch_joint_5'
p1238
aS'two_outer_pitch_joint_5'
p1239
aS'one_outer_wrist_open_angle_joint_2'
p1240
aS'two_outer_wrist_open_angle_joint_2'
p1241
aa(F0.7321873915778216
F0.1656677209616127
F0.19447663798986192
F-3.901660438551269
F0.16054053961666168
F-0.09997689250840233
F-0.27932801630724335
F-0.046364478416059736
F-0.30014460396209564
F0.11386284626020303
F-4.5347229946252545
F0.1039069684927702
F0.09209884196666032
F0.17414321652462778
F-0.30014460396209564
F0.1656677209616127
F0.30014460396209564
F-0.1656677209616127
F0.30014460396209564
F-0.1656677209616127
F-0.30014460396209564
F0.1656677209616127
F-0.17414321652462778
F0.27932801630724335
tp1242
a(ta(tabasS'5'
p1243
(lp1244
g3
(g4
g5
Ntp1245
Rp1246
(lp1247
g3
(g9
g5
Ntp1248
Rp1249
(lp1250
I3850038
ag3
(g13
g5
Ntp1251
Rp1252
(lp1253
I1405640125
aI417126597
abaS'/two_remote_center_link'
p1254
abag3
(g18
g5
Ntp1255
Rp1256
(lp1257
g3
(g22
g5
Ntp1258
Rp1259
(lp1260
F0.09144205922715119
aF-0.03229790386219268
aF-0.1453339016589472
abag3
(g26
g5
Ntp1261
Rp1262
(lp1263
F0.870242773630523
aF-0.40771142183530623
aF0.2474755551391833
aF-0.1233075871852188
abababag3
(g30
g5
Ntp1264
Rp1265
(lp1266
g3
(g9
g5
Ntp1267
Rp1268
(lp1269
I3843553
ag3
(g13
g5
Ntp1270
Rp1271
(lp1272
I1405640125
aI378750042
abag40
aba(lp1273
S'two_outer_yaw_joint'
p1274
aS'two_outer_pitch_joint_1'
p1275
aS'two_outer_insertion_joint'
p1276
aS'two_outer_roll_joint'
p1277
aS'two_outer_wrist_pitch_joint'
p1278
aS'two_outer_wrist_yaw_joint'
p1279
aS'two_outer_wrist_open_angle_joint_1'
p1280
aS'one_outer_yaw_joint'
p1281
aS'one_outer_pitch_joint_1'
p1282
aS'one_outer_insertion_joint'
p1283
aS'one_outer_roll_joint'
p1284
aS'one_outer_wrist_pitch_joint'
p1285
aS'one_outer_wrist_yaw_joint'
p1286
aS'one_outer_wrist_open_angle_joint_1'
p1287
aS'one_outer_pitch_joint_2'
p1288
aS'two_outer_pitch_joint_2'
p1289
aS'one_outer_pitch_joint_3'
p1290
aS'two_outer_pitch_joint_3'
p1291
aS'one_outer_pitch_joint_4'
p1292
aS'two_outer_pitch_joint_4'
p1293
aS'one_outer_pitch_joint_5'
p1294
aS'two_outer_pitch_joint_5'
p1295
aS'one_outer_wrist_open_angle_joint_2'
p1296
aS'two_outer_wrist_open_angle_joint_2'
p1297
aa(F0.5679403088088149
F0.20538573613374936
F0.1713598984198619
F-3.8448344638669636
F0.1725645515960204
F-0.13444864755613722
F-0.269200684206918
F-0.046372201148933964
F-0.3001677721607183
F0.11386284626020303
F-4.5347229946252545
F0.1039069684927702
F0.09209884196666032
F0.17446990465689632
F-0.3001677721607183
F0.20538573613374936
F0.3001677721607183
F-0.20538573613374936
F0.3001677721607183
F-0.20538573613374936
F-0.3001677721607183
F0.20538573613374936
F-0.17446990465689632
F0.269200684206918
tp1298
a(ta(tabasS'4'
p1299
(lp1300
g3
(g4
g5
Ntp1301
Rp1302
(lp1303
g3
(g9
g5
Ntp1304
Rp1305
(lp1306
I3841057
ag3
(g13
g5
Ntp1307
Rp1308
(lp1309
I1405640106
aI866039278
abaS'/two_remote_center_link'
p1310
abag3
(g18
g5
Ntp1311
Rp1312
(lp1313
g3
(g22
g5
Ntp1314
Rp1315
(lp1316
F0.10455975826400107
aF-0.032298792884464
aF-0.14458065807562298
abag3
(g26
g5
Ntp1317
Rp1318
(lp1319
F0.8340852699865908
aF-0.45883302109352503
aF0.288757205584422
aF-0.10194752262149664
abababag3
(g30
g5
Ntp1320
Rp1321
(lp1322
g3
(g9
g5
Ntp1323
Rp1324
(lp1325
I3834574
ag3
(g13
g5
Ntp1326
Rp1327
(lp1328
I1405640106
aI835201458
abag40
aba(lp1329
S'two_outer_yaw_joint'
p1330
aS'two_outer_pitch_joint_1'
p1331
aS'two_outer_insertion_joint'
p1332
aS'two_outer_roll_joint'
p1333
aS'two_outer_wrist_pitch_joint'
p1334
aS'two_outer_wrist_yaw_joint'
p1335
aS'two_outer_wrist_open_angle_joint_1'
p1336
aS'one_outer_yaw_joint'
p1337
aS'one_outer_pitch_joint_1'
p1338
aS'one_outer_insertion_joint'
p1339
aS'one_outer_roll_joint'
p1340
aS'one_outer_wrist_pitch_joint'
p1341
aS'one_outer_wrist_yaw_joint'
p1342
aS'one_outer_wrist_open_angle_joint_1'
p1343
aS'one_outer_pitch_joint_2'
p1344
aS'two_outer_pitch_joint_2'
p1345
aS'one_outer_pitch_joint_3'
p1346
aS'two_outer_pitch_joint_3'
p1347
aS'one_outer_pitch_joint_4'
p1348
aS'two_outer_pitch_joint_4'
p1349
aS'one_outer_pitch_joint_5'
p1350
aS'two_outer_pitch_joint_5'
p1351
aS'one_outer_wrist_open_angle_joint_2'
p1352
aS'two_outer_wrist_open_angle_joint_2'
p1353
aa(F0.6292819760287801
F0.18777018244764326
F0.17769616393986193
F-3.740408872011671
F0.08402409974801502
F-0.041340088484872216
F-0.2839016501590032
F-0.046379923881808185
F-0.30015232669496983
F0.11386284626020303
F-4.5347229946252545
F0.1039069684927702
F0.09209884196666032
F0.17446990465689632
F-0.30015232669496983
F0.18777018244764326
F0.30015232669496983
F-0.18777018244764326
F0.30015232669496983
F-0.18777018244764326
F-0.30015232669496983
F0.18777018244764326
F-0.17446990465689632
F0.2839016501590032
tp1354
a(ta(tabasS'7'
p1355
(lp1356
g3
(g4
g5
Ntp1357
Rp1358
(lp1359
g3
(g9
g5
Ntp1360
Rp1361
(lp1362
I3877085
ag3
(g13
g5
Ntp1363
Rp1364
(lp1365
I1405640181
aI259433472
abaS'/two_remote_center_link'
p1366
abag3
(g18
g5
Ntp1367
Rp1368
(lp1369
g3
(g22
g5
Ntp1370
Rp1371
(lp1372
F0.06692894839821097
aF-0.033854850486556086
aF-0.14405010481472807
abag3
(g26
g5
Ntp1373
Rp1374
(lp1375
F0.9040862409585791
aF-0.3725096176639528
aF0.16824683591100864
aF-0.12473033257061318
abababag3
(g30
g5
Ntp1376
Rp1377
(lp1378
g3
(g9
g5
Ntp1379
Rp1380
(lp1381
I3870601
ag3
(g13
g5
Ntp1382
Rp1383
(lp1384
I1405640181
aI226505831
abag40
aba(lp1385
S'two_outer_yaw_joint'
p1386
aS'two_outer_pitch_joint_1'
p1387
aS'two_outer_insertion_joint'
p1388
aS'two_outer_roll_joint'
p1389
aS'two_outer_wrist_pitch_joint'
p1390
aS'two_outer_wrist_yaw_joint'
p1391
aS'two_outer_wrist_open_angle_joint_1'
p1392
aS'one_outer_yaw_joint'
p1393
aS'one_outer_pitch_joint_1'
p1394
aS'one_outer_insertion_joint'
p1395
aS'one_outer_roll_joint'
p1396
aS'one_outer_wrist_pitch_joint'
p1397
aS'one_outer_wrist_yaw_joint'
p1398
aS'one_outer_wrist_open_angle_joint_1'
p1399
aS'one_outer_pitch_joint_2'
p1400
aS'two_outer_pitch_joint_2'
p1401
aS'one_outer_pitch_joint_3'
p1402
aS'two_outer_pitch_joint_3'
p1403
aS'one_outer_pitch_joint_4'
p1404
aS'two_outer_pitch_joint_4'
p1405
aS'one_outer_pitch_joint_5'
p1406
aS'two_outer_pitch_joint_5'
p1407
aS'one_outer_wrist_open_angle_joint_2'
p1408
aS'two_outer_wrist_open_angle_joint_2'
p1409
aa(F0.44830745385420295
F0.24146634412212628
F0.15953902990986193
F-3.9419209077002986
F0.26971310292924855
F-0.2159537818082286
F-0.28324827389446605
F-0.046356755683185515
F-0.3001677721607183
F0.11386284626020303
F-4.5347229946252545
F0.1039069684927702
F0.09201716322651976
F0.1746332487230306
F-0.3001677721607183
F0.24146634412212628
F0.3001677721607183
F-0.24146634412212628
F0.3001677721607183
F-0.24146634412212628
F-0.3001677721607183
F0.24146634412212628
F-0.1746332487230306
F0.28324827389446605
tp1410
a(ta(tabasS'6'
p1411
(lp1412
g3
(g4
g5
Ntp1413
Rp1414
(lp1415
g3
(g9
g5
Ntp1416
Rp1417
(lp1418
I3861690
ag3
(g13
g5
Ntp1419
Rp1420
(lp1421
I1405640149
aI471763105
abaS'/two_remote_center_link'
p1422
abag3
(g18
g5
Ntp1423
Rp1424
(lp1425
g3
(g22
g5
Ntp1426
Rp1427
(lp1428
F0.0793705564126435
aF-0.033560239795471306
aF-0.14336952407591466
abag3
(g26
g5
Ntp1429
Rp1430
(lp1431
F0.8756526178585989
aF-0.40794913354304185
aF0.21623921034993276
aF-0.14160014543107433
abababag3
(g30
g5
Ntp1432
Rp1433
(lp1434
g3
(g9
g5
Ntp1435
Rp1436
(lp1437
I3855218
ag3
(g13
g5
Ntp1438
Rp1439
(lp1440
I1405640149
aI463189786
abag40
aba(lp1441
S'two_outer_yaw_joint'
p1442
aS'two_outer_pitch_joint_1'
p1443
aS'two_outer_insertion_joint'
p1444
aS'two_outer_roll_joint'
p1445
aS'two_outer_wrist_pitch_joint'
p1446
aS'two_outer_wrist_yaw_joint'
p1447
aS'two_outer_wrist_open_angle_joint_1'
p1448
aS'one_outer_yaw_joint'
p1449
aS'one_outer_pitch_joint_1'
p1450
aS'one_outer_insertion_joint'
p1451
aS'one_outer_roll_joint'
p1452
aS'one_outer_wrist_pitch_joint'
p1453
aS'one_outer_wrist_yaw_joint'
p1454
aS'one_outer_wrist_open_angle_joint_1'
p1455
aS'one_outer_pitch_joint_2'
p1456
aS'two_outer_pitch_joint_2'
p1457
aS'one_outer_pitch_joint_3'
p1458
aS'two_outer_pitch_joint_3'
p1459
aS'one_outer_pitch_joint_4'
p1460
aS'two_outer_pitch_joint_4'
p1461
aS'one_outer_pitch_joint_5'
p1462
aS'two_outer_pitch_joint_5'
p1463
aS'one_outer_wrist_open_angle_joint_2'
p1464
aS'two_outer_wrist_open_angle_joint_2'
p1465
aa(F0.5134641511140352
F0.22955789003007207
F0.16420437761986192
F-3.8437860141495412
F0.22967860849797453
F-0.19662197066808876
F-0.2788379841088405
F-0.046372201148933964
F-0.3001600494278441
F0.11386284626020303
F-4.5347229946252545
F0.1039069684927702
F0.09209884196666032
F0.17446990465689632
F-0.3001600494278441
F0.22955789003007207
F0.3001600494278441
F-0.22955789003007207
F0.3001600494278441
F-0.22955789003007207
F-0.3001600494278441
F0.22955789003007207
F-0.17446990465689632
F0.2788379841088405
tp1466
a(ta(tabasS'9'
p1467
(lp1468
g3
(g4
g5
Ntp1469
Rp1470
(lp1471
g3
(g9
g5
Ntp1472
Rp1473
(lp1474
I3915574
ag3
(g13
g5
Ntp1475
Rp1476
(lp1477
I1405640260
aI817122256
abaS'/two_remote_center_link'
p1478
abag3
(g18
g5
Ntp1479
Rp1480
(lp1481
g3
(g22
g5
Ntp1482
Rp1483
(lp1484
F0.14083008182609708
aF-0.01542287799063165
aF-0.14611494718416082
abag3
(g26
g5
Ntp1485
Rp1486
(lp1487
F0.8102458682363858
aF-0.5094074611530066
aF0.19944277596798493
aF-0.21030513698361636
abababag3
(g30
g5
Ntp1488
Rp1489
(lp1490
g3
(g9
g5
Ntp1491
Rp1492
(lp1493
I3909099
ag3
(g13
g5
Ntp1494
Rp1495
(lp1496
I1405640260
aI802737493
abag40
aba(lp1497
S'two_outer_yaw_joint'
p1498
aS'two_outer_pitch_joint_1'
p1499
aS'two_outer_insertion_joint'
p1500
aS'two_outer_roll_joint'
p1501
aS'two_outer_wrist_pitch_joint'
p1502
aS'two_outer_wrist_yaw_joint'
p1503
aS'two_outer_wrist_open_angle_joint_1'
p1504
aS'one_outer_yaw_joint'
p1505
aS'one_outer_pitch_joint_1'
p1506
aS'one_outer_insertion_joint'
p1507
aS'one_outer_roll_joint'
p1508
aS'one_outer_wrist_pitch_joint'
p1509
aS'one_outer_wrist_yaw_joint'
p1510
aS'one_outer_wrist_open_angle_joint_1'
p1511
aS'one_outer_pitch_joint_2'
p1512
aS'two_outer_pitch_joint_2'
p1513
aS'one_outer_pitch_joint_3'
p1514
aS'two_outer_pitch_joint_3'
p1515
aS'one_outer_pitch_joint_4'
p1516
aS'two_outer_pitch_joint_4'
p1517
aS'one_outer_pitch_joint_5'
p1518
aS'two_outer_pitch_joint_5'
p1519
aS'one_outer_wrist_open_angle_joint_2'
p1520
aS'two_outer_wrist_open_angle_joint_2'
p1521
aa(F0.7823079279315388
F0.09979280954447764
F0.20064957096986194
F-3.5296704788097233
F0.29977313287764545
F0.10184987930765509
F-0.26773058761170954
F-0.046379923881808185
F-0.30014460396209564
F0.11386284626020303
F-4.5347229946252545
F0.1039069684927702
F0.09218052070680088
F0.17430656059076205
F-0.30014460396209564
F0.09979280954447764
F0.30014460396209564
F-0.09979280954447764
F0.30014460396209564
F-0.09979280954447764
F-0.30014460396209564
F0.09979280954447764
F-0.17430656059076205
F0.26773058761170954
tp1522
a(ta(tabasS'8'
p1523
(lp1524
g3
(g4
g5
Ntp1525
Rp1526
(lp1527
g3
(g9
g5
Ntp1528
Rp1529
(lp1530
I3908546
ag3
(g13
g5
Ntp1531
Rp1532
(lp1533
I1405640246
aI322629001
abaS'/two_remote_center_link'
p1534
abag3
(g18
g5
Ntp1535
Rp1536
(lp1537
g3
(g22
g5
Ntp1538
Rp1539
(lp1540
F0.153498793998159
aF-0.014631124068067306
aF-0.14686341348590531
abag3
(g26
g5
Ntp1541
Rp1542
(lp1543
F0.8265140557282955
aF-0.4457815695619498
aF0.25546211141952224
aF-0.22998351582565257
abababag3
(g30
g5
Ntp1544
Rp1545
(lp1546
g3
(g9
g5
Ntp1547
Rp1548
(lp1549
I3902071
ag3
(g13
g5
Ntp1550
Rp1551
(lp1552
I1405640246
aI308207324
abag40
aba(lp1553
S'two_outer_yaw_joint'
p1554
aS'two_outer_pitch_joint_1'
p1555
aS'two_outer_insertion_joint'
p1556
aS'two_outer_roll_joint'
p1557
aS'two_outer_wrist_pitch_joint'
p1558
aS'two_outer_wrist_yaw_joint'
p1559
aS'two_outer_wrist_open_angle_joint_1'
p1560
aS'one_outer_yaw_joint'
p1561
aS'one_outer_pitch_joint_1'
p1562
aS'one_outer_insertion_joint'
p1563
aS'one_outer_roll_joint'
p1564
aS'one_outer_wrist_pitch_joint'
p1565
aS'one_outer_wrist_yaw_joint'
p1566
aS'one_outer_wrist_open_angle_joint_1'
p1567
aS'one_outer_pitch_joint_2'
p1568
aS'two_outer_pitch_joint_2'
p1569
aS'one_outer_pitch_joint_3'
p1570
aS'two_outer_pitch_joint_3'
p1571
aS'one_outer_pitch_joint_4'
p1572
aS'two_outer_pitch_joint_4'
p1573
aS'one_outer_pitch_joint_5'
p1574
aS'two_outer_pitch_joint_5'
p1575
aS'one_outer_wrist_open_angle_joint_2'
p1576
aS'two_outer_wrist_open_angle_joint_2'
p1577
aa(F0.8195701140496721
F0.09038652090367219
F0.20991156301986194
F-3.6651301823007265
F0.2765449279175206
F-0.007526377824776623
F-0.2793280163072433
F-0.046364478416059736
F-0.3001677721607183
F0.11386284626020303
F-4.5347229946252545
F0.1039069684927702
F0.09201716322651976
F0.1746332487230306
F-0.3001677721607183
F0.09038652090367219
F0.3001677721607183
F-0.09038652090367219
F0.3001677721607183
F-0.09038652090367219
F-0.3001677721607183
F0.09038652090367219
F-0.1746332487230306
F0.2793280163072433
tp1578
a(ta(tabasS'39'
p1579
(lp1580
g3
(g4
g5
Ntp1581
Rp1582
(lp1583
g3
(g9
g5
Ntp1584
Rp1585
(lp1586
I4463741
ag3
(g13
g5
Ntp1587
Rp1588
(lp1589
I1405641392
aI604562445
abaS'/two_remote_center_link'
p1590
abag3
(g18
g5
Ntp1591
Rp1592
(lp1593
g3
(g22
g5
Ntp1594
Rp1595
(lp1596
F0.06221624813345752
aF0.015027617272971005
aF-0.13987763453383079
abag3
(g26
g5
Ntp1597
Rp1598
(lp1599
F0.8700230739575271
aF-0.398711304729472
aF0.1704791806292547
aF-0.2345762034699929
abababag3
(g30
g5
Ntp1600
Rp1601
(lp1602
g3
(g9
g5
Ntp1603
Rp1604
(lp1605
I4457269
ag3
(g13
g5
Ntp1606
Rp1607
(lp1608
I1405641392
aI596331487
abag40
aba(lp1609
S'two_outer_yaw_joint'
p1610
aS'two_outer_pitch_joint_1'
p1611
aS'two_outer_insertion_joint'
p1612
aS'two_outer_roll_joint'
p1613
aS'two_outer_wrist_pitch_joint'
p1614
aS'two_outer_wrist_yaw_joint'
p1615
aS'two_outer_wrist_open_angle_joint_1'
p1616
aS'one_outer_yaw_joint'
p1617
aS'one_outer_pitch_joint_1'
p1618
aS'one_outer_insertion_joint'
p1619
aS'one_outer_roll_joint'
p1620
aS'one_outer_wrist_pitch_joint'
p1621
aS'one_outer_wrist_yaw_joint'
p1622
aS'one_outer_wrist_open_angle_joint_1'
p1623
aS'one_outer_pitch_joint_2'
p1624
aS'two_outer_pitch_joint_2'
p1625
aS'one_outer_pitch_joint_3'
p1626
aS'two_outer_pitch_joint_3'
p1627
aS'one_outer_pitch_joint_4'
p1628
aS'two_outer_pitch_joint_4'
p1629
aS'one_outer_pitch_joint_5'
p1630
aS'two_outer_pitch_joint_5'
p1631
aS'one_outer_wrist_open_angle_joint_2'
p1632
aS'two_outer_wrist_open_angle_joint_2'
p1633
aa(F0.41456683392671606
F-0.08088052604800476
F0.15039240766986192
F-3.8072999639832337
F0.08812319474097824
F-0.2059981373733753
F-0.2847183704896746
F-0.046395369347556635
F-0.30015232669496983
F0.11386284626020303
F-4.5347229946252545
F0.10377033199300477
F0.09221025987035675
F0.17446990465689632
F-0.30015232669496983
F-0.08088052604800476
F0.30015232669496983
F0.08088052604800476
F0.30015232669496983
F0.08088052604800476
F-0.30015232669496983
F-0.08088052604800476
F-0.17446990465689632
F0.2847183704896746
tp1634
a(ta(tabasS'38'
p1635
(lp1636
g3
(g4
g5
Ntp1637
Rp1638
(lp1639
g3
(g9
g5
Ntp1640
Rp1641
(lp1642
I4451658
ag3
(g13
g5
Ntp1643
Rp1644
(lp1645
I1405641367
aI652785391
abaS'/two_remote_center_link'
p1646
abag3
(g18
g5
Ntp1647
Rp1648
(lp1649
g3
(g22
g5
Ntp1650
Rp1651
(lp1652
F0.07452918256321792
aF0.016369941222733733
aF-0.1411491763332266
abag3
(g26
g5
Ntp1653
Rp1654
(lp1655
F0.8994647639895743
aF-0.30953323888569956
aF0.20412889725287475
aF-0.23126544418142825
abababag3
(g30
g5
Ntp1656
Rp1657
(lp1658
g3
(g9
g5
Ntp1659
Rp1660
(lp1661
I4445175
ag3
(g13
g5
Ntp1662
Rp1663
(lp1664
I1405641367
aI621967410
abag40
aba(lp1665
S'two_outer_yaw_joint'
p1666
aS'two_outer_pitch_joint_1'
p1667
aS'two_outer_insertion_joint'
p1668
aS'two_outer_roll_joint'
p1669
aS'two_outer_wrist_pitch_joint'
p1670
aS'two_outer_wrist_yaw_joint'
p1671
aS'two_outer_wrist_open_angle_joint_1'
p1672
aS'one_outer_yaw_joint'
p1673
aS'one_outer_pitch_joint_1'
p1674
aS'one_outer_insertion_joint'
p1675
aS'one_outer_roll_joint'
p1676
aS'one_outer_wrist_pitch_joint'
p1677
aS'one_outer_wrist_yaw_joint'
p1678
aS'one_outer_wrist_open_angle_joint_1'
p1679
aS'one_outer_pitch_joint_2'
p1680
aS'two_outer_pitch_joint_2'
p1681
aS'one_outer_pitch_joint_3'
p1682
aS'two_outer_pitch_joint_3'
p1683
aS'one_outer_pitch_joint_4'
p1684
aS'two_outer_pitch_joint_4'
p1685
aS'one_outer_pitch_joint_5'
p1686
aS'two_outer_pitch_joint_5'
p1687
aS'one_outer_wrist_open_angle_joint_2'
p1688
aS'two_outer_wrist_open_angle_joint_2'
p1689
aa(F0.48459657563018393
F-0.0859311933477476
F0.15701385698986192
F-3.98742362543644
F0.08320428074942239
F-0.2054992786663483
F-0.28553509082034595
F-0.046395369347556635
F-0.30014460396209564
F0.11386284626020303
F-4.5347229946252545
F0.10377033199300477
F0.09221025987035675
F0.17414321652462778
F-0.30014460396209564
F-0.0859311933477476
F0.30014460396209564
F0.0859311933477476
F0.30014460396209564
F0.0859311933477476
F-0.30014460396209564
F-0.0859311933477476
F-0.17414321652462778
F0.28553509082034595
tp1690
a(ta(tabasS'11'
p1691
(lp1692
g3
(g4
g5
Ntp1693
Rp1694
(lp1695
g3
(g9
g5
Ntp1696
Rp1697
(lp1698
I3938777
ag3
(g13
g5
Ntp1699
Rp1700
(lp1701
I1405640308
aI722391152
abaS'/two_remote_center_link'
p1702
abag3
(g18
g5
Ntp1703
Rp1704
(lp1705
g3
(g22
g5
Ntp1706
Rp1707
(lp1708
F0.11593135112142676
aF-0.018599032434617527
aF-0.14502523058997394
abag3
(g26
g5
Ntp1709
Rp1710
(lp1711
F0.8126646390962754
aF-0.5217280845055488
aF0.18767706402573042
aF-0.17931344020840512
abababag3
(g30
g5
Ntp1712
Rp1713
(lp1714
g3
(g9
g5
Ntp1715
Rp1716
(lp1717
I3932305
ag3
(g13
g5
Ntp1718
Rp1719
(lp1720
I1405640308
aI714133999
abag40
aba(lp1721
S'two_outer_yaw_joint'
p1722
aS'two_outer_pitch_joint_1'
p1723
aS'two_outer_insertion_joint'
p1724
aS'two_outer_roll_joint'
p1725
aS'two_outer_wrist_pitch_joint'
p1726
aS'two_outer_wrist_yaw_joint'
p1727
aS'two_outer_wrist_open_angle_joint_1'
p1728
aS'one_outer_yaw_joint'
p1729
aS'one_outer_pitch_joint_1'
p1730
aS'one_outer_insertion_joint'
p1731
aS'one_outer_roll_joint'
p1732
aS'one_outer_wrist_pitch_joint'
p1733
aS'one_outer_wrist_yaw_joint'
p1734
aS'one_outer_wrist_open_angle_joint_1'
p1735
aS'one_outer_pitch_joint_2'
p1736
aS'two_outer_pitch_joint_2'
p1737
aS'one_outer_pitch_joint_3'
p1738
aS'two_outer_pitch_joint_3'
p1739
aS'one_outer_pitch_joint_4'
p1740
aS'two_outer_pitch_joint_4'
p1741
aS'one_outer_pitch_joint_5'
p1742
aS'two_outer_pitch_joint_5'
p1743
aS'one_outer_wrist_open_angle_joint_2'
p1744
aS'two_outer_wrist_open_angle_joint_2'
p1745
aa(F0.6887238509616862
F0.12359427226283758
F0.18354372812986194
F-3.5380580765491048
F0.2686200109311251
F0.07350855033794917
F-0.2863518111510174
F-0.046372201148933964
F-0.30015232669496983
F0.11386284626020303
F-4.5347229946252545
F0.1039069684927702
F0.09201716322651976
F0.17430656059076205
F-0.30015232669496983
F0.12359427226283758
F0.30015232669496983
F-0.12359427226283758
F0.30015232669496983
F-0.12359427226283758
F-0.30015232669496983
F0.12359427226283758
F-0.17430656059076205
F0.2863518111510174
tp1746
a(ta(tabasS'10'
p1747
(lp1748
g3
(g4
g5
Ntp1749
Rp1750
(lp1751
g3
(g9
g5
Ntp1752
Rp1753
(lp1754
I3926903
ag3
(g13
g5
Ntp1755
Rp1756
(lp1757
I1405640284
aI213075894
abaS'/two_remote_center_link'
p1758
abag3
(g18
g5
Ntp1759
Rp1760
(lp1761
g3
(g22
g5
Ntp1762
Rp1763
(lp1764
F0.12883771378003245
aF-0.01759008356196023
aF-0.1458300936603894
abag3
(g26
g5
Ntp1765
Rp1766
(lp1767
F0.8067039318150956
aF-0.5249987625376158
aF0.1974000327502946
aF-0.18611365559308285
abababag3
(g30
g5
Ntp1768
Rp1769
(lp1770
g3
(g9
g5
Ntp1771
Rp1772
(lp1773
I3920424
ag3
(g13
g5
Ntp1774
Rp1775
(lp1776
I1405640284
aI189482590
abag40
aba(lp1777
S'two_outer_yaw_joint'
p1778
aS'two_outer_pitch_joint_1'
p1779
aS'two_outer_insertion_joint'
p1780
aS'two_outer_roll_joint'
p1781
aS'two_outer_wrist_pitch_joint'
p1782
aS'two_outer_wrist_yaw_joint'
p1783
aS'two_outer_wrist_open_angle_joint_1'
p1784
aS'one_outer_yaw_joint'
p1785
aS'one_outer_pitch_joint_1'
p1786
aS'one_outer_insertion_joint'
p1787
aS'one_outer_roll_joint'
p1788
aS'one_outer_wrist_pitch_joint'
p1789
aS'one_outer_wrist_yaw_joint'
p1790
aS'one_outer_wrist_open_angle_joint_1'
p1791
aS'one_outer_pitch_joint_2'
p1792
aS'two_outer_pitch_joint_2'
p1793
aS'one_outer_pitch_joint_3'
p1794
aS'two_outer_pitch_joint_3'
p1795
aS'one_outer_pitch_joint_4'
p1796
aS'two_outer_pitch_joint_4'
p1797
aS'one_outer_pitch_joint_5'
p1798
aS'two_outer_pitch_joint_5'
p1799
aS'one_outer_wrist_open_angle_joint_2'
p1800
aS'two_outer_wrist_open_angle_joint_2'
p1801
aa(F0.7382806278155849
F0.11195611382138125
F0.19233775948986193
F-3.520444121296404
F0.26342782394003833
F0.10575823854662598
F-0.2855350908203459
F-0.046379923881808185
F-0.3001600494278441
F0.11386284626020303
F-4.5347229946252545
F0.1039069684927702
F0.09201716322651976
F0.17495993685529915
F-0.3001600494278441
F0.11195611382138125
F0.3001600494278441
F-0.11195611382138125
F0.3001600494278441
F-0.11195611382138125
F-0.3001600494278441
F0.11195611382138125
F-0.17495993685529915
F0.2855350908203459
tp1802
a(ta(tabasS'13'
p1803
(lp1804
g3
(g4
g5
Ntp1805
Rp1806
(lp1807
g3
(g9
g5
Ntp1808
Rp1809
(lp1810
I4094642
ag3
(g13
g5
Ntp1811
Rp1812
(lp1813
I1405640630
aI266400965
abaS'/two_remote_center_link'
p1814
abag3
(g18
g5
Ntp1815
Rp1816
(lp1817
g3
(g22
g5
Ntp1818
Rp1819
(lp1820
F0.09137084428628887
aF-0.018815632914546805
aF-0.1442391310619161
abag3
(g26
g5
Ntp1821
Rp1822
(lp1823
F0.8248225567393674
aF-0.5190472382540556
aF0.1347379031167578
aF-0.1791742498755608
abababag3
(g30
g5
Ntp1824
Rp1825
(lp1826
g3
(g9
g5
Ntp1827
Rp1828
(lp1829
I4088170
ag3
(g13
g5
Ntp1830
Rp1831
(lp1832
I1405640630
aI258191047
abag40
aba(lp1833
S'two_outer_yaw_joint'
p1834
aS'two_outer_pitch_joint_1'
p1835
aS'two_outer_insertion_joint'
p1836
aS'two_outer_roll_joint'
p1837
aS'two_outer_wrist_pitch_joint'
p1838
aS'two_outer_wrist_yaw_joint'
p1839
aS'two_outer_wrist_open_angle_joint_1'
p1840
aS'one_outer_yaw_joint'
p1841
aS'one_outer_pitch_joint_1'
p1842
aS'one_outer_insertion_joint'
p1843
aS'one_outer_roll_joint'
p1844
aS'one_outer_wrist_pitch_joint'
p1845
aS'one_outer_wrist_yaw_joint'
p1846
aS'one_outer_wrist_open_angle_joint_1'
p1847
aS'one_outer_pitch_joint_2'
p1848
aS'two_outer_pitch_joint_2'
p1849
aS'one_outer_pitch_joint_3'
p1850
aS'two_outer_pitch_joint_3'
p1851
aS'one_outer_pitch_joint_4'
p1852
aS'two_outer_pitch_joint_4'
p1853
aS'one_outer_pitch_joint_5'
p1854
aS'two_outer_pitch_joint_5'
p1855
aS'one_outer_wrist_open_angle_joint_2'
p1856
aS'two_outer_wrist_open_angle_joint_2'
p1857
aa(F0.5807368771814049
F0.14324090469486472
F0.16904213189986192
F-3.5502200932712067
F0.33611844181525263
F0.023042115359788423
F-0.2896186924737029
F-0.046372201148933964
F-0.30015232669496983
F0.11386284626020303
F-4.5347229946252545
F0.1039069684927702
F0.09209884196666032
F0.17414321652462778
F-0.30015232669496983
F0.14324090469486472
F0.30015232669496983
F-0.14324090469486472
F0.30015232669496983
F-0.14324090469486472
F-0.30015232669496983
F0.14324090469486472
F-0.17414321652462778
F0.2896186924737029
tp1858
a(ta(tabasS'12'
p1859
(lp1860
g3
(g4
g5
Ntp1861
Rp1862
(lp1863
g3
(g9
g5
Ntp1864
Rp1865
(lp1866
I4084765
ag3
(g13
g5
Ntp1867
Rp1868
(lp1869
I1405640609
aI867119977
abaS'/two_remote_center_link'
p1870
abag3
(g18
g5
Ntp1871
Rp1872
(lp1873
g3
(g22
g5
Ntp1874
Rp1875
(lp1876
F0.10395288622970253
aF-0.018692208483149855
aF-0.1441444499312608
abag3
(g26
g5
Ntp1877
Rp1878
(lp1879
F0.8318487493471843
aF-0.50158013129942
aF0.16005029524456113
aF-0.17558169918106648
abababag3
(g30
g5
Ntp1880
Rp1881
(lp1882
g3
(g9
g5
Ntp1883
Rp1884
(lp1885
I4078287
ag3
(g13
g5
Ntp1886
Rp1887
(lp1888
I1405640609
aI846484323
abag40
aba(lp1889
S'two_outer_yaw_joint'
p1890
aS'two_outer_pitch_joint_1'
p1891
aS'two_outer_insertion_joint'
p1892
aS'two_outer_roll_joint'
p1893
aS'two_outer_wrist_pitch_joint'
p1894
aS'two_outer_wrist_yaw_joint'
p1895
aS'two_outer_wrist_open_angle_joint_1'
p1896
aS'one_outer_yaw_joint'
p1897
aS'one_outer_pitch_joint_1'
p1898
aS'one_outer_insertion_joint'
p1899
aS'one_outer_roll_joint'
p1900
aS'one_outer_wrist_pitch_joint'
p1901
aS'one_outer_wrist_yaw_joint'
p1902
aS'one_outer_wrist_open_angle_joint_1'
p1903
aS'one_outer_pitch_joint_2'
p1904
aS'two_outer_pitch_joint_2'
p1905
aS'one_outer_pitch_joint_3'
p1906
aS'two_outer_pitch_joint_3'
p1907
aS'one_outer_pitch_joint_4'
p1908
aS'two_outer_pitch_joint_4'
p1909
aS'one_outer_pitch_joint_5'
p1910
aS'two_outer_pitch_joint_5'
p1911
aS'one_outer_wrist_open_angle_joint_2'
p1912
aS'two_outer_wrist_open_angle_joint_2'
p1913
aa(F0.6418391396822691
F0.13401996164304067
F0.1758696913298619
F-3.5888030428723594
F0.3171259683478564
F0.04661539924750671
F-0.2888019721430316
F-0.046364478416059736
F-0.30015232669496983
F0.11386284626020303
F-4.5347229946252545
F0.1039069684927702
F0.09201716322651976
F0.1746332487230306
F-0.30015232669496983
F0.13401996164304067
F0.30015232669496983
F-0.13401996164304067
F0.30015232669496983
F-0.13401996164304067
F-0.30015232669496983
F0.13401996164304067
F-0.1746332487230306
F0.2888019721430316
tp1914
a(ta(tabasS'15'
p1915
(lp1916
g3
(g4
g5
Ntp1917
Rp1918
(lp1919
g3
(g9
g5
Ntp1920
Rp1921
(lp1922
I4113169
ag3
(g13
g5
Ntp1923
Rp1924
(lp1925
I1405640668
aI538968685
abaS'/two_remote_center_link'
p1926
abag3
(g18
g5
Ntp1927
Rp1928
(lp1929
g3
(g22
g5
Ntp1930
Rp1931
(lp1932
F0.0659669093643375
aF-0.021589830938457937
aF-0.14286439746335472
abag3
(g26
g5
Ntp1933
Rp1934
(lp1935
F0.85942974420255
aF-0.4730637846897261
aF0.1067101896871536
aF-0.16187682296086656
abababag3
(g30
g5
Ntp1936
Rp1937
(lp1938
g3
(g9
g5
Ntp1939
Rp1940
(lp1941
I4106691
ag3
(g13
g5
Ntp1942
Rp1943
(lp1944
I1405640668
aI518405117
abag40
aba(lp1945
S'two_outer_yaw_joint'
p1946
aS'two_outer_pitch_joint_1'
p1947
aS'two_outer_insertion_joint'
p1948
aS'two_outer_roll_joint'
p1949
aS'two_outer_wrist_pitch_joint'
p1950
aS'two_outer_wrist_yaw_joint'
p1951
aS'two_outer_wrist_open_angle_joint_1'
p1952
aS'one_outer_yaw_joint'
p1953
aS'one_outer_pitch_joint_1'
p1954
aS'one_outer_insertion_joint'
p1955
aS'one_outer_roll_joint'
p1956
aS'one_outer_wrist_pitch_joint'
p1957
aS'one_outer_wrist_yaw_joint'
p1958
aS'one_outer_wrist_open_angle_joint_1'
p1959
aS'one_outer_pitch_joint_2'
p1960
aS'two_outer_pitch_joint_2'
p1961
aS'one_outer_pitch_joint_3'
p1962
aS'two_outer_pitch_joint_3'
p1963
aS'one_outer_pitch_joint_4'
p1964
aS'two_outer_pitch_joint_4'
p1965
aS'one_outer_pitch_joint_5'
p1966
aS'two_outer_pitch_joint_5'
p1967
aS'one_outer_wrist_open_angle_joint_2'
p1968
aS'two_outer_wrist_open_angle_joint_2'
p1969
aa(F0.4494813092510851
F0.17556826450636853
F0.15623867556986193
F-3.6917608051232613
F0.3552475517824143
F-0.09669678483692742
F-0.27965470443951185
F-0.046349032950311286
F-0.30015232669496983
F0.11386284626020303
F-4.5347229946252545
F0.1039069684927702
F0.09209884196666032
F0.17446990465689632
F-0.30015232669496983
F0.17556826450636853
F0.30015232669496983
F-0.17556826450636853
F0.30015232669496983
F-0.17556826450636853
F-0.30015232669496983
F0.17556826450636853
F-0.17446990465689632
F0.27965470443951185
tp1970
a(ta(tabasS'14'
p1971
(lp1972
g3
(g4
g5
Ntp1973
Rp1974
(lp1975
g3
(g9
g5
Ntp1976
Rp1977
(lp1978
I4100600
ag3
(g13
g5
Ntp1979
Rp1980
(lp1981
I1405640642
aI574344365
abaS'/two_remote_center_link'
p1982
abag3
(g18
g5
Ntp1983
Rp1984
(lp1985
g3
(g22
g5
Ntp1986
Rp1987
(lp1988
F0.07846002446487675
aF-0.02077591964933141
aF-0.14325544930875592
abag3
(g26
g5
Ntp1989
Rp1990
(lp1991
F0.8225929523072146
aF-0.5261696194031202
aF0.11516814570297935
aF-0.1822708551771609
abababag3
(g30
g5
Ntp1992
Rp1993
(lp1994
g3
(g9
g5
Ntp1995
Rp1996
(lp1997
I4094117
ag3
(g13
g5
Ntp1998
Rp1999
(lp2000
I1405640642
aI543479745
abag40
aba(lp2001
S'two_outer_yaw_joint'
p2002
aS'two_outer_pitch_joint_1'
p2003
aS'two_outer_insertion_joint'
p2004
aS'two_outer_roll_joint'
p2005
aS'two_outer_wrist_pitch_joint'
p2006
aS'two_outer_wrist_yaw_joint'
p2007
aS'two_outer_wrist_open_angle_joint_1'
p2008
aS'one_outer_yaw_joint'
p2009
aS'one_outer_pitch_joint_1'
p2010
aS'one_outer_insertion_joint'
p2011
aS'one_outer_roll_joint'
p2012
aS'one_outer_wrist_pitch_joint'
p2013
aS'one_outer_wrist_yaw_joint'
p2014
aS'one_outer_wrist_open_angle_joint_1'
p2015
aS'one_outer_pitch_joint_2'
p2016
aS'two_outer_pitch_joint_2'
p2017
aS'one_outer_pitch_joint_3'
p2018
aS'two_outer_pitch_joint_3'
p2019
aS'one_outer_pitch_joint_4'
p2020
aS'two_outer_pitch_joint_4'
p2021
aS'one_outer_pitch_joint_5'
p2022
aS'two_outer_pitch_joint_5'
p2023
aS'one_outer_wrist_open_angle_joint_2'
p2024
aS'two_outer_wrist_open_angle_joint_2'
p2025
aa(F0.5160280984282777
F0.16555960270137357
F0.16207327685986192
F-3.541622805588341
F0.363855651267637
F-0.0245694135735971
F-0.2667505232149038
F-0.046364478416059736
F-0.30015232669496983
F0.11386284626020303
F-4.5347229946252545
F0.1039069684927702
F0.09201716322651976
F0.1746332487230306
F-0.30015232669496983
F0.16555960270137357
F0.30015232669496983
F-0.16555960270137357
F0.30015232669496983
F-0.16555960270137357
F-0.30015232669496983
F0.16555960270137357
F-0.1746332487230306
F0.2667505232149038
tp2026
a(ta(tabasS'17'
p2027
(lp2028
g3
(g4
g5
Ntp2029
Rp2030
(lp2031
g3
(g9
g5
Ntp2032
Rp2033
(lp2034
I4151564
ag3
(g13
g5
Ntp2035
Rp2036
(lp2037
I1405640747
aI847465148
abaS'/two_remote_center_link'
p2038
abag3
(g18
g5
Ntp2039
Rp2040
(lp2041
g3
(g22
g5
Ntp2042
Rp2043
(lp2044
F0.13936163806898658
aF-0.003606363099871891
aF-0.14625834783254404
abag3
(g26
g5
Ntp2045
Rp2046
(lp2047
F0.8214116308441484
aF-0.5132576211631479
aF0.17702033322610763
aF-0.17468070487727289
abababag3
(g30
g5
Ntp2048
Rp2049
(lp2050
g3
(g9
g5
Ntp2051
Rp2052
(lp2053
I4145092
ag3
(g13
g5
Ntp2054
Rp2055
(lp2056
I1405640747
aI839224699
abag40
aba(lp2057
S'two_outer_yaw_joint'
p2058
aS'two_outer_pitch_joint_1'
p2059
aS'two_outer_insertion_joint'
p2060
aS'two_outer_roll_joint'
p2061
aS'two_outer_wrist_pitch_joint'
p2062
aS'two_outer_wrist_yaw_joint'
p2063
aS'two_outer_wrist_open_angle_joint_1'
p2064
aS'one_outer_yaw_joint'
p2065
aS'one_outer_pitch_joint_1'
p2066
aS'one_outer_insertion_joint'
p2067
aS'one_outer_roll_joint'
p2068
aS'one_outer_wrist_pitch_joint'
p2069
aS'one_outer_wrist_yaw_joint'
p2070
aS'one_outer_wrist_open_angle_joint_1'
p2071
aS'one_outer_pitch_joint_2'
p2072
aS'two_outer_pitch_joint_2'
p2073
aS'one_outer_pitch_joint_3'
p2074
aS'two_outer_pitch_joint_3'
p2075
aS'one_outer_pitch_joint_4'
p2076
aS'two_outer_pitch_joint_4'
p2077
aS'one_outer_pitch_joint_5'
p2078
aS'two_outer_pitch_joint_5'
p2079
aS'one_outer_wrist_open_angle_joint_2'
p2080
aS'two_outer_wrist_open_angle_joint_2'
p2081
aa(F0.7796126941584345
F0.03486779427087219
F0.19907457861986194
F-3.5330255179054757
F0.2430689854749877
F0.2091023282266699
F-0.12741803480236363
F-0.04640309208043086
F-0.3001677721607183
F0.11386414255020302
F-4.5347229946252545
F0.1039069684927702
F0.09209884196666032
F0.17414321652462778
F-0.3001677721607183
F0.03486779427087219
F0.3001677721607183
F-0.03486779427087219
F0.3001677721607183
F-0.03486779427087219
F-0.3001677721607183
F0.03486779427087219
F-0.17414321652462778
F0.12741803480236363
tp2082
a(ta(tabasS'16'
p2083
(lp2084
g3
(g4
g5
Ntp2085
Rp2086
(lp2087
g3
(g9
g5
Ntp2088
Rp2089
(lp2090
I4138647
ag3
(g13
g5
Ntp2091
Rp2092
(lp2093
I1405640721
aI173294476
abaS'/two_remote_center_link'
p2094
abag3
(g18
g5
Ntp2095
Rp2096
(lp2097
g3
(g22
g5
Ntp2098
Rp2099
(lp2100
F0.15298112391385502
aF-0.002591430585529542
aF-0.14564422947740135
abag3
(g26
g5
Ntp2101
Rp2102
(lp2103
F0.7879708604579415
aF-0.5525365681453258
aF0.20712849530523206
aF-0.1757926345554539
abababag3
(g30
g5
Ntp2104
Rp2105
(lp2106
g3
(g9
g5
Ntp2107
Rp2108
(lp2109
I4132168
ag3
(g13
g5
Ntp2110
Rp2111
(lp2112
I1405640721
aI150624126
abag40
aba(lp2113
S'two_outer_yaw_joint'
p2114
aS'two_outer_pitch_joint_1'
p2115
aS'two_outer_insertion_joint'
p2116
aS'two_outer_roll_joint'
p2117
aS'two_outer_wrist_pitch_joint'
p2118
aS'two_outer_wrist_yaw_joint'
p2119
aS'two_outer_wrist_open_angle_joint_1'
p2120
aS'one_outer_yaw_joint'
p2121
aS'one_outer_pitch_joint_1'
p2122
aS'one_outer_insertion_joint'
p2123
aS'one_outer_roll_joint'
p2124
aS'one_outer_wrist_pitch_joint'
p2125
aS'one_outer_wrist_yaw_joint'
p2126
aS'one_outer_wrist_open_angle_joint_1'
p2127
aS'one_outer_pitch_joint_2'
p2128
aS'two_outer_pitch_joint_2'
p2129
aS'one_outer_pitch_joint_3'
p2130
aS'two_outer_pitch_joint_3'
p2131
aS'one_outer_pitch_joint_4'
p2132
aS'two_outer_pitch_joint_4'
p2133
aS'one_outer_pitch_joint_5'
p2134
aS'two_outer_pitch_joint_5'
p2135
aS'one_outer_wrist_open_angle_joint_2'
p2136
aS'two_outer_wrist_open_angle_joint_2'
p2137
aa(F0.825176818116359
F0.021932216706546135
F0.20802675735986192
F-3.4533433393813566
F0.15466517012674774
F0.24092209302895734
F-0.2915788212673142
F-0.04640309208043086
F-0.3001677721607183
F0.11386284626020303
F-4.5347229946252545
F0.1039069684927702
F0.09201716322651976
F0.17430656059076205
F-0.3001677721607183
F0.021932216706546135
F0.3001677721607183
F-0.021932216706546135
F0.3001677721607183
F-0.021932216706546135
F-0.3001677721607183
F0.021932216706546135
F-0.17430656059076205
F0.2915788212673142
tp2138
a(ta(tabasS'19'
p2139
(lp2140
g3
(g4
g5
Ntp2141
Rp2142
(lp2143
g3
(g9
g5
Ntp2144
Rp2145
(lp2146
I4170923
ag3
(g13
g5
Ntp2147
Rp2148
(lp2149
I1405640787
aI828574676
abaS'/two_remote_center_link'
p2150
abag3
(g18
g5
Ntp2151
Rp2152
(lp2153
g3
(g22
g5
Ntp2154
Rp2155
(lp2156
F0.11493210438934233
aF-0.006175259407038734
aF-0.14480023151415197
abag3
(g26
g5
Ntp2157
Rp2158
(lp2159
F0.7959159396123437
aF-0.5561085980020056
aF0.15680280738294353
aF-0.18075929822853196
abababag3
(g30
g5
Ntp2160
Rp2161
(lp2162
g3
(g9
g5
Ntp2163
Rp2164
(lp2165
I4164445
ag3
(g13
g5
Ntp2166
Rp2167
(lp2168
I1405640787
aI807951168
abag40
aba(lp2169
S'two_outer_yaw_joint'
p2170
aS'two_outer_pitch_joint_1'
p2171
aS'two_outer_insertion_joint'
p2172
aS'two_outer_roll_joint'
p2173
aS'two_outer_wrist_pitch_joint'
p2174
aS'two_outer_wrist_yaw_joint'
p2175
aS'two_outer_wrist_open_angle_joint_1'
p2176
aS'one_outer_yaw_joint'
p2177
aS'one_outer_pitch_joint_1'
p2178
aS'one_outer_insertion_joint'
p2179
aS'one_outer_roll_joint'
p2180
aS'one_outer_wrist_pitch_joint'
p2181
aS'one_outer_wrist_yaw_joint'
p2182
aS'one_outer_wrist_open_angle_joint_1'
p2183
aS'one_outer_pitch_joint_2'
p2184
aS'two_outer_pitch_joint_2'
p2185
aS'one_outer_pitch_joint_3'
p2186
aS'two_outer_pitch_joint_3'
p2187
aS'one_outer_pitch_joint_4'
p2188
aS'two_outer_pitch_joint_4'
p2189
aS'one_outer_pitch_joint_5'
p2190
aS'two_outer_pitch_joint_5'
p2191
aS'one_outer_wrist_open_angle_joint_2'
p2192
aS'two_outer_wrist_open_angle_joint_2'
p2193
aa(F0.6858355488667263
F0.05293126646368332
F0.1818183661398619
F-3.4413910126027387
F0.22434978500712238
F0.15461293695303946
F-0.2825948976299289
F-0.046372201148933964
F-0.30015232669496983
F0.11386284626020303
F-4.5347229946252545
F0.1039069684927702
F0.09201716322651976
F0.1746332487230306
F-0.30015232669496983
F0.05293126646368332
F0.30015232669496983
F-0.05293126646368332
F0.30015232669496983
F-0.05293126646368332
F-0.30015232669496983
F0.05293126646368332
F-0.1746332487230306
F0.2825948976299289
tp2194
a(ta(tabasS'18'
p2195
(lp2196
g3
(g4
g5
Ntp2197
Rp2198
(lp2199
g3
(g9
g5
Ntp2200
Rp2201
(lp2202
I4160645
ag3
(g13
g5
Ntp2203
Rp2204
(lp2205
I1405640766
aI607848731
abaS'/two_remote_center_link'
p2206
abag3
(g18
g5
Ntp2207
Rp2208
(lp2209
g3
(g22
g5
Ntp2210
Rp2211
(lp2212
F0.12667560138925466
aF-0.004226097746780301
aF-0.1467678694811119
abag3
(g26
g5
Ntp2213
Rp2214
(lp2215
F0.8397160367299736
aF-0.48039925231528297
aF0.16758822847618388
aF-0.18975700701064255
abababag3
(g30
g5
Ntp2216
Rp2217
(lp2218
g3
(g9
g5
Ntp2219
Rp2220
(lp2221
I4154171
ag3
(g13
g5
Ntp2222
Rp2223
(lp2224
I1405640766
aI595428915
abag40
aba(lp2225
S'two_outer_yaw_joint'
p2226
aS'two_outer_pitch_joint_1'
p2227
aS'two_outer_insertion_joint'
p2228
aS'two_outer_roll_joint'
p2229
aS'two_outer_wrist_pitch_joint'
p2230
aS'two_outer_wrist_yaw_joint'
p2231
aS'two_outer_wrist_open_angle_joint_1'
p2232
aS'one_outer_yaw_joint'
p2233
aS'one_outer_pitch_joint_1'
p2234
aS'one_outer_insertion_joint'
p2235
aS'one_outer_roll_joint'
p2236
aS'one_outer_wrist_pitch_joint'
p2237
aS'one_outer_wrist_yaw_joint'
p2238
aS'one_outer_wrist_open_angle_joint_1'
p2239
aS'one_outer_pitch_joint_2'
p2240
aS'two_outer_pitch_joint_2'
p2241
aS'one_outer_pitch_joint_3'
p2242
aS'two_outer_pitch_joint_3'
p2243
aS'one_outer_pitch_joint_4'
p2244
aS'two_outer_pitch_joint_4'
p2245
aS'one_outer_pitch_joint_5'
p2246
aS'two_outer_pitch_joint_5'
p2247
aS'one_outer_wrist_open_angle_joint_2'
p2248
aS'two_outer_wrist_open_angle_joint_2'
p2249
aa(F0.730442053948247
F0.04436675570616834
F0.19102072884986193
F-3.6015941294249156
F0.2903452143938301
F0.123178064266182
F-0.24175888109635915
F-0.046387646614682414
F-0.30015232669496983
F0.11386284626020303
F-4.5347229946252545
F0.1039069684927702
F0.09218052070680088
F0.17430656059076205
F-0.30015232669496983
F0.04436675570616834
F0.30015232669496983
F-0.04436675570616834
F0.30015232669496983
F-0.04436675570616834
F-0.30015232669496983
F0.04436675570616834
F-0.17430656059076205
F0.24175888109635915
tp2250
a(ta(tabasS'31'
p2251
(lp2252
g3
(g4
g5
Ntp2253
Rp2254
(lp2255
g3
(g9
g5
Ntp2256
Rp2257
(lp2258
I4311217
ag3
(g13
g5
Ntp2259
Rp2260
(lp2261
I1405641077
aI646182183
abaS'/two_remote_center_link'
p2262
abag3
(g18
g5
Ntp2263
Rp2264
(lp2265
g3
(g22
g5
Ntp2266
Rp2267
(lp2268
F0.06301632654905351
aF0.0013873226219256567
aF-0.1421270051784433
abag3
(g26
g5
Ntp2269
Rp2270
(lp2271
F0.7845701735745306
aF-0.59194540838991
aF0.11445283543818124
aF-0.14474399705512503
abababag3
(g30
g5
Ntp2272
Rp2273
(lp2274
g3
(g9
g5
Ntp2275
Rp2276
(lp2277
I4304738
ag3
(g13
g5
Ntp2278
Rp2279
(lp2280
I1405641077
aI623571168
abag40
aba(lp2281
S'two_outer_yaw_joint'
p2282
aS'two_outer_pitch_joint_1'
p2283
aS'two_outer_insertion_joint'
p2284
aS'two_outer_roll_joint'
p2285
aS'two_outer_wrist_pitch_joint'
p2286
aS'two_outer_wrist_yaw_joint'
p2287
aS'two_outer_wrist_open_angle_joint_1'
p2288
aS'one_outer_yaw_joint'
p2289
aS'one_outer_pitch_joint_1'
p2290
aS'one_outer_insertion_joint'
p2291
aS'one_outer_roll_joint'
p2292
aS'one_outer_wrist_pitch_joint'
p2293
aS'one_outer_wrist_yaw_joint'
p2294
aS'one_outer_wrist_open_angle_joint_1'
p2295
aS'one_outer_pitch_joint_2'
p2296
aS'two_outer_pitch_joint_2'
p2297
aS'one_outer_pitch_joint_3'
p2298
aS'two_outer_pitch_joint_3'
p2299
aS'one_outer_pitch_joint_4'
p2300
aS'two_outer_pitch_joint_4'
p2301
aS'one_outer_pitch_joint_5'
p2302
aS'two_outer_pitch_joint_5'
p2303
aS'one_outer_wrist_open_angle_joint_2'
p2304
aS'two_outer_wrist_open_angle_joint_2'
p2305
aa(F0.42303867188974037
F0.003420826007029986
F0.15188184487986192
F-3.3981948842449268
F0.10807212370673254
F0.0364114187121078
F-0.28194152136539175
F-0.046387646614682414
F-0.30015232669496983
F0.11386284626020303
F-4.5347229946252545
F0.10377033199300477
F0.09221025987035675
F0.17446990465689632
F-0.30015232669496983
F0.003420826007029986
F0.30015232669496983
F-0.003420826007029986
F0.30015232669496983
F-0.003420826007029986
F-0.30015232669496983
F0.003420826007029986
F-0.17446990465689632
F0.28194152136539175
tp2306
a(ta(tabasS'30'
p2307
(lp2308
g3
(g4
g5
Ntp2309
Rp2310
(lp2311
g3
(g9
g5
Ntp2312
Rp2313
(lp2314
I4304562
ag3
(g13
g5
Ntp2315
Rp2316
(lp2317
I1405641063
aI896465096
abaS'/two_remote_center_link'
p2318
abag3
(g18
g5
Ntp2319
Rp2320
(lp2321
g3
(g22
g5
Ntp2322
Rp2323
(lp2324
F0.07602163718078571
aF0.0024243837154390765
aF-0.1433694600747178
abag3
(g26
g5
Ntp2325
Rp2326
(lp2327
F0.7819315945998763
aF-0.5865696677642022
aF0.14026414434415993
aF-0.15762289185549447
abababag3
(g30
g5
Ntp2328
Rp2329
(lp2330
g3
(g9
g5
Ntp2331
Rp2332
(lp2333
I4298080
ag3
(g13
g5
Ntp2334
Rp2335
(lp2336
I1405641063
aI867671853
abag40
aba(lp2337
S'two_outer_yaw_joint'
p2338
aS'two_outer_pitch_joint_1'
p2339
aS'two_outer_insertion_joint'
p2340
aS'two_outer_roll_joint'
p2341
aS'two_outer_wrist_pitch_joint'
p2342
aS'two_outer_wrist_yaw_joint'
p2343
aS'two_outer_wrist_open_angle_joint_1'
p2344
aS'one_outer_yaw_joint'
p2345
aS'one_outer_pitch_joint_1'
p2346
aS'one_outer_insertion_joint'
p2347
aS'one_outer_roll_joint'
p2348
aS'one_outer_wrist_pitch_joint'
p2349
aS'one_outer_wrist_yaw_joint'
p2350
aS'one_outer_wrist_open_angle_joint_1'
p2351
aS'one_outer_pitch_joint_2'
p2352
aS'two_outer_pitch_joint_2'
p2353
aS'one_outer_pitch_joint_3'
p2354
aS'two_outer_pitch_joint_3'
p2355
aS'one_outer_pitch_joint_4'
p2356
aS'two_outer_pitch_joint_4'
p2357
aS'one_outer_pitch_joint_5'
p2358
aS'two_outer_pitch_joint_5'
p2359
aS'one_outer_wrist_open_angle_joint_2'
p2360
aS'two_outer_wrist_open_angle_joint_2'
p2361
aa(F0.49366306402452353
F-0.0050046755587489535
F0.1586847747998619
F-3.401969303227648
F0.0941352007306576
F0.053330199218701003
F-0.27606113498455775
F-0.046387646614682414
F-0.30015232669496983
F0.11386284626020303
F-4.5347229946252545
F0.10377033199300477
F0.09212858113021619
F0.1746332487230306
F-0.30015232669496983
F-0.0050046755587489535
F0.30015232669496983
F0.0050046755587489535
F0.30015232669496983
F0.0050046755587489535
F-0.30015232669496983
F-0.0050046755587489535
F-0.1746332487230306
F0.27606113498455775
tp2362
a(ta(tabasS'37'
p2363
(lp2364
g3
(g4
g5
Ntp2365
Rp2366
(lp2367
g3
(g9
g5
Ntp2368
Rp2369
(lp2370
I4438838
ag3
(g13
g5
Ntp2371
Rp2372
(lp2373
I1405641341
aI166203701
abaS'/two_remote_center_link'
p2374
abag3
(g18
g5
Ntp2375
Rp2376
(lp2377
g3
(g22
g5
Ntp2378
Rp2379
(lp2380
F0.08747017352675059
aF0.01630513407825508
aF-0.14281402976955024
abag3
(g26
g5
Ntp2381
Rp2382
(lp2383
F0.8565708149142566
aF-0.4494539934315473
aF0.2242902466828903
aF-0.11820081246966639
abababag3
(g30
g5
Ntp2384
Rp2385
(lp2386
g3
(g9
g5
Ntp2387
Rp2388
(lp2389
I4432355
ag3
(g13
g5
Ntp2390
Rp2391
(lp2392
I1405641341
aI135334314
abag40
aba(lp2393
S'two_outer_yaw_joint'
p2394
aS'two_outer_pitch_joint_1'
p2395
aS'two_outer_insertion_joint'
p2396
aS'two_outer_roll_joint'
p2397
aS'two_outer_wrist_pitch_joint'
p2398
aS'two_outer_wrist_yaw_joint'
p2399
aS'two_outer_wrist_open_angle_joint_1'
p2400
aS'one_outer_yaw_joint'
p2401
aS'one_outer_pitch_joint_1'
p2402
aS'one_outer_insertion_joint'
p2403
aS'one_outer_roll_joint'
p2404
aS'one_outer_wrist_pitch_joint'
p2405
aS'one_outer_wrist_yaw_joint'
p2406
aS'one_outer_wrist_open_angle_joint_1'
p2407
aS'one_outer_pitch_joint_2'
p2408
aS'two_outer_pitch_joint_2'
p2409
aS'one_outer_pitch_joint_3'
p2410
aS'two_outer_pitch_joint_3'
p2411
aS'one_outer_pitch_joint_4'
p2412
aS'two_outer_pitch_joint_4'
p2413
aS'one_outer_pitch_joint_5'
p2414
aS'two_outer_pitch_joint_5'
p2415
aS'one_outer_wrist_open_angle_joint_2'
p2416
aS'two_outer_wrist_open_angle_joint_2'
p2417
aa(F0.5497687183557646
F-0.1063500990671972
F0.1646399310598619
F-3.746699570316206
F-0.0657295039949077
F0.09049370404313253
F-0.2866784992832859
F-0.046395369347556635
F-0.30014460396209564
F0.11386284626020303
F-4.5347229946252545
F0.10377033199300477
F0.09212858113021619
F0.17430656059076205
F-0.30014460396209564
F-0.1063500990671972
F0.30014460396209564
F0.1063500990671972
F0.30014460396209564
F0.1063500990671972
F-0.30014460396209564
F-0.1063500990671972
F-0.17430656059076205
F0.2866784992832859
tp2418
a(ta(tabasS'36'
p2419
(lp2420
g3
(g4
g5
Ntp2421
Rp2422
(lp2423
g3
(g9
g5
Ntp2424
Rp2425
(lp2426
I4380196
ag3
(g13
g5
Ntp2427
Rp2428
(lp2429
I1405641220
aI155094891
abaS'/two_remote_center_link'
p2430
abag3
(g18
g5
Ntp2431
Rp2432
(lp2433
g3
(g22
g5
Ntp2434
Rp2435
(lp2436
F0.0985589832719294
aF0.015771035561503197
aF-0.14462604792737913
abag3
(g26
g5
Ntp2437
Rp2438
(lp2439
F0.8072499103387321
aF-0.5383111173250115
aF0.18867424903332658
aF-0.15156104702105053
abababag3
(g30
g5
Ntp2440
Rp2441
(lp2442
g3
(g9
g5
Ntp2443
Rp2444
(lp2445
I4373713
ag3
(g13
g5
Ntp2446
Rp2447
(lp2448
I1405641220
aI124018483
abag40
aba(lp2449
S'two_outer_yaw_joint'
p2450
aS'two_outer_pitch_joint_1'
p2451
aS'two_outer_insertion_joint'
p2452
aS'two_outer_roll_joint'
p2453
aS'two_outer_wrist_pitch_joint'
p2454
aS'two_outer_wrist_yaw_joint'
p2455
aS'two_outer_wrist_open_angle_joint_1'
p2456
aS'one_outer_yaw_joint'
p2457
aS'one_outer_pitch_joint_1'
p2458
aS'one_outer_insertion_joint'
p2459
aS'one_outer_roll_joint'
p2460
aS'one_outer_wrist_pitch_joint'
p2461
aS'one_outer_wrist_yaw_joint'
p2462
aS'one_outer_wrist_open_angle_joint_1'
p2463
aS'one_outer_pitch_joint_2'
p2464
aS'two_outer_pitch_joint_2'
p2465
aS'one_outer_pitch_joint_3'
p2466
aS'two_outer_pitch_joint_3'
p2467
aS'one_outer_pitch_joint_4'
p2468
aS'two_outer_pitch_joint_4'
p2469
aS'one_outer_pitch_joint_5'
p2470
aS'two_outer_pitch_joint_5'
p2471
aS'one_outer_wrist_open_angle_joint_2'
p2472
aS'two_outer_wrist_open_angle_joint_2'
p2473
aa(F0.6049399220092244
F-0.09301293939341147
F0.17210396887986193
F-3.5181375319180743
F-0.004106442600694062
F0.12813055386729147
F-0.2892920043414344
F-0.046379923881808185
F-0.3001600494278441
F0.11386284626020303
F-4.5347229946252545
F0.10377033199300477
F0.09221025987035675
F0.17446990465689632
F-0.3001600494278441
F-0.09301293939341147
F0.3001600494278441
F0.09301293939341147
F0.3001600494278441
F0.09301293939341147
F-0.3001600494278441
F-0.09301293939341147
F-0.17446990465689632
F0.2892920043414344
tp2474
a(ta(tabasS'35'
p2475
(lp2476
g3
(g4
g5
Ntp2477
Rp2478
(lp2479
g3
(g9
g5
Ntp2480
Rp2481
(lp2482
I4369600
ag3
(g13
g5
Ntp2483
Rp2484
(lp2485
I1405641198
aI266573951
abaS'/two_remote_center_link'
p2486
abag3
(g18
g5
Ntp2487
Rp2488
(lp2489
g3
(g22
g5
Ntp2490
Rp2491
(lp2492
F0.11277093239286752
aF0.01860624520563399
aF-0.14241874599183213
abag3
(g26
g5
Ntp2493
Rp2494
(lp2495
F0.8056051739459529
aF-0.5102854327059335
aF0.20901853885748078
aF-0.21661101378626407
abababag3
(g30
g5
Ntp2496
Rp2497
(lp2498
g3
(g9
g5
Ntp2499
Rp2500
(lp2501
I4363125
ag3
(g13
g5
Ntp2502
Rp2503
(lp2504
I1405641198
aI252158249
abag40
aba(lp2505
S'two_outer_yaw_joint'
p2506
aS'two_outer_pitch_joint_1'
p2507
aS'two_outer_insertion_joint'
p2508
aS'two_outer_roll_joint'
p2509
aS'two_outer_wrist_pitch_joint'
p2510
aS'two_outer_wrist_yaw_joint'
p2511
aS'two_outer_wrist_open_angle_joint_1'
p2512
aS'one_outer_yaw_joint'
p2513
aS'one_outer_pitch_joint_1'
p2514
aS'one_outer_insertion_joint'
p2515
aS'one_outer_roll_joint'
p2516
aS'one_outer_wrist_pitch_joint'
p2517
aS'one_outer_wrist_yaw_joint'
p2518
aS'one_outer_wrist_open_angle_joint_1'
p2519
aS'one_outer_pitch_joint_2'
p2520
aS'two_outer_pitch_joint_2'
p2521
aS'one_outer_pitch_joint_3'
p2522
aS'two_outer_pitch_joint_3'
p2523
aS'one_outer_pitch_joint_4'
p2524
aS'two_outer_pitch_joint_4'
p2525
aS'one_outer_pitch_joint_5'
p2526
aS'two_outer_pitch_joint_5'
p2527
aS'one_outer_wrist_open_angle_joint_2'
p2528
aS'two_outer_wrist_open_angle_joint_2'
p2529
aa(F0.6752708502947871
F-0.09682796943327837
F0.17896263926986195
F-3.530299548640177
F0.06571480877944601
F0.055758723191853835
F-0.28847528401076294
F-0.046379923881808185
F-0.3001600494278441
F0.11386284626020303
F-4.5347229946252545
F0.10377033199300477
F0.09221025987035675
F0.17446990465689632
F-0.3001600494278441
F-0.09682796943327837
F0.3001600494278441
F0.09682796943327837
F0.3001600494278441
F0.09682796943327837
F-0.3001600494278441
F-0.09682796943327837
F-0.17446990465689632
F0.28847528401076294
tp2530
a(ta(tabasS'34'
p2531
(lp2532
g3
(g4
g5
Ntp2533
Rp2534
(lp2535
g3
(g9
g5
Ntp2536
Rp2537
(lp2538
I4357604
ag3
(g13
g5
Ntp2539
Rp2540
(lp2541
I1405641173
aI483184744
abaS'/two_remote_center_link'
p2542
abag3
(g18
g5
Ntp2543
Rp2544
(lp2545
g3
(g22
g5
Ntp2546
Rp2547
(lp2548
F0.12533371146029362
aF0.02054123719161004
aF-0.14272305502498528
abag3
(g26
g5
Ntp2549
Rp2550
(lp2551
F0.8389081659101805
aF-0.4497670728160505
aF0.20624858283936764
aF-0.2267249246475808
abababag3
(g30
g5
Ntp2552
Rp2553
(lp2554
g3
(g9
g5
Ntp2555
Rp2556
(lp2557
I4351130
ag3
(g13
g5
Ntp2558
Rp2559
(lp2560
I1405641173
aI470880109
abag40
aba(lp2561
S'two_outer_yaw_joint'
p2562
aS'two_outer_pitch_joint_1'
p2563
aS'two_outer_insertion_joint'
p2564
aS'two_outer_roll_joint'
p2565
aS'two_outer_wrist_pitch_joint'
p2566
aS'two_outer_wrist_yaw_joint'
p2567
aS'two_outer_wrist_open_angle_joint_1'
p2568
aS'one_outer_yaw_joint'
p2569
aS'one_outer_pitch_joint_1'
p2570
aS'one_outer_insertion_joint'
p2571
aS'one_outer_roll_joint'
p2572
aS'one_outer_wrist_pitch_joint'
p2573
aS'one_outer_wrist_yaw_joint'
p2574
aS'one_outer_wrist_open_angle_joint_1'
p2575
aS'one_outer_pitch_joint_2'
p2576
aS'two_outer_pitch_joint_2'
p2577
aS'one_outer_pitch_joint_3'
p2578
aS'two_outer_pitch_joint_3'
p2579
aS'one_outer_pitch_joint_4'
p2580
aS'two_outer_pitch_joint_4'
p2581
aS'one_outer_pitch_joint_5'
p2582
aS'two_outer_pitch_joint_5'
p2583
aS'one_outer_wrist_open_angle_joint_2'
p2584
aS'two_outer_wrist_open_angle_joint_2'
p2585
aa(F0.731268386365789
F-0.09596302335136522
F0.18757648631986193
F-3.642693358347882
F0.15329880512909333
F0.06822391304680515
F-0.2899453806059715
F-0.046372201148933964
F-0.30015232669496983
F0.11386284626020303
F-4.5347229946252545
F0.10377033199300477
F0.09221025987035675
F0.17414321652462778
F-0.30015232669496983
F-0.09596302335136522
F0.30015232669496983
F0.09596302335136522
F0.30015232669496983
F0.09596302335136522
F-0.30015232669496983
F-0.09596302335136522
F-0.17414321652462778
F0.2899453806059715
tp2586
a(ta(tabasS'33'
p2587
(lp2588
g3
(g4
g5
Ntp2589
Rp2590
(lp2591
g3
(g9
g5
Ntp2592
Rp2593
(lp2594
I4351092
ag3
(g13
g5
Ntp2595
Rp2596
(lp2597
I1405641160
aI26178851
abaS'/two_remote_center_link'
p2598
abag3
(g18
g5
Ntp2599
Rp2600
(lp2601
g3
(g22
g5
Ntp2602
Rp2603
(lp2604
F0.13816103508998123
aF0.020978437150350897
aF-0.1438227972557726
abag3
(g26
g5
Ntp2605
Rp2606
(lp2607
F0.8128297548741208
aF-0.5196466212190375
aF0.1597076482066148
aF-0.20920957375614377
abababag3
(g30
g5
Ntp2608
Rp2609
(lp2610
g3
(g9
g5
Ntp2611
Rp2612
(lp2613
I4344607
ag3
(g13
g5
Ntp2614
Rp2615
(lp2616
I1405641159
aI990333405
abag40
aba(lp2617
S'two_outer_yaw_joint'
p2618
aS'two_outer_pitch_joint_1'
p2619
aS'two_outer_insertion_joint'
p2620
aS'two_outer_roll_joint'
p2621
aS'two_outer_wrist_pitch_joint'
p2622
aS'two_outer_wrist_yaw_joint'
p2623
aS'two_outer_wrist_open_angle_joint_1'
p2624
aS'one_outer_yaw_joint'
p2625
aS'one_outer_pitch_joint_1'
p2626
aS'one_outer_insertion_joint'
p2627
aS'one_outer_roll_joint'
p2628
aS'one_outer_wrist_pitch_joint'
p2629
aS'one_outer_wrist_yaw_joint'
p2630
aS'one_outer_wrist_open_angle_joint_1'
p2631
aS'one_outer_pitch_joint_2'
p2632
aS'two_outer_pitch_joint_2'
p2633
aS'one_outer_pitch_joint_3'
p2634
aS'two_outer_pitch_joint_3'
p2635
aS'one_outer_pitch_joint_4'
p2636
aS'two_outer_pitch_joint_4'
p2637
aS'one_outer_pitch_joint_5'
p2638
aS'two_outer_pitch_joint_5'
p2639
aS'one_outer_wrist_open_angle_joint_2'
p2640
aS'two_outer_wrist_open_angle_joint_2'
p2641
aa(F0.7815897137742359
F-0.09308244398927949
F0.19734143888986194
F-3.4724251242384483
F0.1731110975950822
F0.22792264453345457
F-0.29141547720118
F-0.046372201148933964
F-0.30015232669496983
F0.11386284626020303
F-4.5347229946252545
F0.10377033199300477
F0.09221025987035675
F0.17479659278916487
F-0.30015232669496983
F-0.09308244398927949
F0.30015232669496983
F0.09308244398927949
F0.30015232669496983
F0.09308244398927949
F-0.30015232669496983
F-0.09308244398927949
F-0.17479659278916487
F0.29141547720118
tp2642
a(ta(tabasS'32'
p2643
(lp2644
g3
(g4
g5
Ntp2645
Rp2646
(lp2647
g3
(g9
g5
Ntp2648
Rp2649
(lp2650
I4333902
ag3
(g13
g5
Ntp2651
Rp2652
(lp2653
I1405641124
aI547352673
abaS'/two_remote_center_link'
p2654
abag3
(g18
g5
Ntp2655
Rp2656
(lp2657
g3
(g22
g5
Ntp2658
Rp2659
(lp2660
F0.14984386125439325
aF0.02238718799868308
aF-0.14456172953316965
abag3
(g26
g5
Ntp2661
Rp2662
(lp2663
F0.798417194761706
aF-0.5432234785459497
aF0.16860259528777008
aF-0.19751303837345716
abababag3
(g30
g5
Ntp2664
Rp2665
(lp2666
g3
(g9
g5
Ntp2667
Rp2668
(lp2669
I4327434
ag3
(g13
g5
Ntp2670
Rp2671
(lp2672
I1405641124
aI547352673
abag40
aba(lp2673
S'two_outer_yaw_joint'
p2674
aS'two_outer_pitch_joint_1'
p2675
aS'two_outer_insertion_joint'
p2676
aS'two_outer_roll_joint'
p2677
aS'two_outer_wrist_pitch_joint'
p2678
aS'two_outer_wrist_yaw_joint'
p2679
aS'two_outer_wrist_open_angle_joint_1'
p2680
aS'one_outer_yaw_joint'
p2681
aS'one_outer_pitch_joint_1'
p2682
aS'one_outer_insertion_joint'
p2683
aS'one_outer_roll_joint'
p2684
aS'one_outer_wrist_pitch_joint'
p2685
aS'one_outer_wrist_yaw_joint'
p2686
aS'one_outer_wrist_open_angle_joint_1'
p2687
aS'one_outer_pitch_joint_2'
p2688
aS'two_outer_pitch_joint_2'
p2689
aS'one_outer_pitch_joint_3'
p2690
aS'two_outer_pitch_joint_3'
p2691
aS'one_outer_pitch_joint_4'
p2692
aS'two_outer_pitch_joint_4'
p2693
aS'one_outer_pitch_joint_5'
p2694
aS'two_outer_pitch_joint_5'
p2695
aS'one_outer_wrist_open_angle_joint_2'
p2696
aS'two_outer_wrist_open_angle_joint_2'
p2697
aa(F0.8197014005085339
F-0.10004062630895577
F0.20623398828986195
F-3.4285999260501825
F0.12665468767483246
F0.2830389459598964
F-0.29157882126731416
F-0.046387646614682414
F-0.30015232669496983
F0.11386284626020303
F-4.5347229946252545
F0.10377033199300477
F0.09221025987035675
F0.17479659278916487
F-0.30015232669496983
F-0.10004062630895577
F0.30015232669496983
F0.10004062630895577
F0.30015232669496983
F0.10004062630895577
F-0.30015232669496983
F-0.10004062630895577
F-0.17479659278916487
F0.29157882126731416
tp2698
a(ta(tabas.